(dp0
S'experiment_1'
p1
V2I63W5XH0JPPYT85BMGLVP75SV1KEG
p2
sS'test2'
p3
V2DJINMHGYQ4J9YGWJJ6MIFOY25GL8F
p4
sS'guarantee_feedback_shown_1'
p5
V2Y0T3HVWAVKICDT43AS75Z99Y0HNFK
p6
sS'test_conds'
p7
V2FNPQJQ9OPLL3NDFZZOGBKCO4Q2Z1D
p8
sS'guarantee_anonymous_1'
p9
V2G4AZHHRRLFQ6ZT88Z81NHO9MZ2NE2
p10
sS'base_case_2'
p11
V2PT727M0IGFKNO7RBNJVI4VIWAAEZ4
p12
sS't3'
p13
V2YDWAVKI62NJWD7SF709TH6BO8ZJRN
p14
sS'thank_on_bad_review_1'
p15
V2A79RA7S5WM1CK4D1NY0MMHLI14UZ7
p16
sS'aah'
p17
V28J4IXKO2L92NPIHNEO31OCCJUUCD5
p18
sS'blah'
p19
V2BU26DG67D1X9660X83ON2JE5EU8F7
p20
sS'3'
p21
V283PHIT3HVWA1VORFVAQ517231WCKJ
p22
sS'second_experiment'
p23
V2P4Z9O9Z6KW45XGKUPIROFQ0SFA3CZ
p24
sS'blah2'
p25
V2UHKPFE4EGDHJX8QYG99QZW6L6M8IY
p26
sS'experiment_name'
p27
V2CIFK0COK2JE7XDAXS0LUW6O3XZKRN
p28
sS'new_schema'
p29
V2JYMMEGOOGQSIXC3NITSHIUUYUICC5
p30
sS'test_case_hi'
p31
V2525UFJ51Y7QKZ50BYJ1FSTMTI5C9X
p32
sS'test'
p33
V2PW4BLYHVI44U385Y2ZDQEZSFY01VK
p34
sS'amk_testafgra'
p35
V2FK4E6AUBXHWYSD0YH0VEZWDVFEX11
p36
sS'another_test'
p37
V22H6R70G5R98JJPO8MYWVSTN243AQ7
p38
sS'test_conds3'
p39
V2JV21O3W5XH0P0VDVABYHPLSUCDBHJ
p40
sS'test_conds2'
p41
V21UJ011K274JDKQB9ES8Q46U2KKBDA
p42
s.