(dp0
S'experiment_1'
p1
V2I63W5XH0JPPYT85BMGLVP75SV1KEG
p2
sS'test2'
p3
V2DJINMHGYQ4J9YGWJJ6MIFOY25GL8F
p4
sS'blah2'
p5
V2UHKPFE4EGDHJX8QYG99QZW6L6M8IY
p6
sS't3'
p7
V2YDWAVKI62NJWD7SF709TH6BO8ZJRN
p8
sS'aah'
p9
V28J4IXKO2L92NPIHNEO31OCCJUUCD5
p10
sS'blah'
p11
V2BU26DG67D1X9660X83ON2JE5EU8F7
p12
sS'3'
p13
V283PHIT3HVWA1VORFVAQ517231WCKJ
p14
sS'second_experiment'
p15
V2P4Z9O9Z6KW45XGKUPIROFQ0SFA3CZ
p16
sS'experiment_name'
p17
V2CIFK0COK2JE7XDAXS0LUW6O3XZKRN
p18
sS'new_schema'
p19
V2JYMMEGOOGQSIXC3NITSHIUUYUICC5
p20
sS'test'
p21
V2PW4BLYHVI44U385Y2ZDQEZSFY01VK
p22
sS'amk_testafgra'
p23
V2FK4E6AUBXHWYSD0YH0VEZWDVFEX11
p24
sS'another_test'
p25
V22H6R70G5R98JJPO8MYWVSTN243AQ7
p26
sS'base_case_2'
p27
V2S9I8IUB2YU9EUND6T23O0FBN307JL
p28
s.