(dp0
S'test2'
p1
V2DJINMHGYQ4J9YGWJJ6MIFOY25GL8F
p2
sS't3'
p3
V2YDWAVKI62NJWD7SF709TH6BO8ZJRN
p4
sS'blah'
p5
V2BU26DG67D1X9660X83ON2JE5EU8F7
p6
sS'test_no_args'
p7
V2NFBAT2D5NQYTGLO38AG8TYMSLF735
p8
sS'test_case_hi'
p9
V2525UFJ51Y7QKZ50BYJ1FSTMTI5C9X
p10
sS'experiment_1'
p11
V2I63W5XH0JPPYT85BMGLVP75SV1KEG
p12
sS'test_review_mandatory_yes'
p13
V23WZZ2MIKMN90JVUBBZTZWXI81E8P6
p14
sS'thank_on_bad_review_1'
p15
V2A79RA7S5WM1CK4D1NY0MMHLI14UZ7
p16
sS'blah2'
p17
V2UHKPFE4EGDHJX8QYG99QZW6L6M8IY
p18
sS'3'
p19
V283PHIT3HVWA1VORFVAQ517231WCKJ
p20
sS'mandatory_review_personal_gain_25subjects'
p21
V28AQV66RLPHIZENG9IMKL62NRDU6E0
p22
sS'test'
p23
V2PW4BLYHVI44U385Y2ZDQEZSFY01VK
p24
sS'base_case_2'
p25
V2PT727M0IGFKNO7RBNJVI4VIWAAEZ4
p26
sS'test_why_leave_collective_gain'
p27
V21UJ011K274JDKQB9ES8Q46U2OWBDU
p28
sS'mandatory_review_1_25takers'
p29
V2XXL6VCPWZ9RTO2313SSASN3I209OF
p30
sS'test_conds'
p31
V2FNPQJQ9OPLL3NDFZZOGBKCO4Q2Z1D
p32
sS'guarantee_feedback_shown_1'
p33
V2Y0T3HVWAVKICDT43AS75Z99Y0HNFK
p34
sS'new_schema'
p35
V2JYMMEGOOGQSIXC3NITSHIUUYUICC5
p36
sS'second_experiment'
p37
V2P4Z9O9Z6KW45XGKUPIROFQ0SFA3CZ
p38
sS'thank_on_bad_review_mandatory_review_experimental_validity_reason_25subjects'
p39
V27DJ8EBDPGFLC6IA970RQDWIWISG1S
p40
sS'name'
p41
V2KZVWAVKI62NP18MKAQ9CQH6GT4IQE
p42
sS'guarantee_anonymous_1'
p43
V2G4AZHHRRLFQ6ZT88Z81NHO9MZ2NE2
p44
sS'aah'
p45
V28J4IXKO2L92NPIHNEO31OCCJUUCD5
p46
sS'test_no_args3'
p47
V2RJQP6AUC26DMHDYE5UV3FK0HX3928
p48
sS'test_no_args2'
p49
V2C73TVOK5UFJBC4S3MFZIYQS6LB74Q
p50
sS'amk_testafgra'
p51
V2FK4E6AUBXHWYSD0YH0VEZWDVFEX11
p52
sS'experiment_name'
p53
V2CIFK0COK2JE7XDAXS0LUW6O3XZKRN
p54
sS'test_conds2'
p55
V21UJ011K274JDKQB9ES8Q46U2KKBDA
p56
sS'another_test'
p57
V22H6R70G5R98JJPO8MYWVSTN243AQ7
p58
sS'test_conds3'
p59
V2JV21O3W5XH0P0VDVABYHPLSUCDBHJ
p60
sS'test_review_mandatory_no'
p61
V2FNPQJQ9OPLL3NDFZZOGBKCO4UF1Z0
p62
s.