(dp0
S'test2'
p1
V2DJINMHGYQ4J9YGWJJ6MIFOY25GL8F
p2
sS'test_review_mandatory_no'
p3
V2FNPQJQ9OPLL3NDFZZOGBKCO4UF1Z0
p4
sS'test_neg1..3'
p5
V2U0PDOBDDP8PP7QFQLZXPB3Q8IW2DW
p6
sS'test_75'
p7
V2EWRSQV66RLPNTZOU3NAYKI67WCC4Y
p8
sS'test_74'
p9
V2AKD5NQYN5F3WBP1I1PMQCWYGD27B6
p10
sS'test_77'
p11
V26OAUC26DG67JC3O886K3COK7S7C53
p12
sS'test_76'
p13
V2VVD2AC9KSSZ183N3CWUXKQO3PG0I8
p14
sS'test_71'
p15
V2ADOK5UFJ51YD1K9CNPQV1CSYVH7AB
p16
sS'test_70'
p17
V217EIB9BAWLSS8VBI3OUG3MTW022ZR
p18
sS'test_no_args'
p19
V2NFBAT2D5NQYTGLO38AG8TYMSLF735
p20
sS'test_72'
p21
V2S3YHVI44OS2QW0TQV5ZVBAPAKU4YY
p22
sS'test_54'
p23
V2S5FSVGULF39B32R0OSFV3NYSS49N9
p24
sS'test_79'
p25
V2AOYTWX4H3H2VMAYMH7I9IJRGEY4ZP
p26
sS'test_78'
p27
V2Y7CGJ2D21O32G32DRGPVI2K3NIC6J
p28
sS'rating_variations_50'
p29
V2IKA1QP6AUC2COMRKLSX6V0FSOG07L
p30
sS'all_conditions1_68'
p31
V2QH6KW4ZMAZHN2X6SYROQNVRPPLH8O
p32
sS'thank_on_bad_review_1'
p33
V2A79RA7S5WM1CK4D1NY0MMHLI14UZ7
p34
sS'test_7'
p35
V2UZJHP4BDDKGA9EC550X6G35C546ZC
p36
sS'test_6'
p37
V2K6H1XERSQV6C2RAUQK3KVWA0TB080
p38
sS'test_5'
p39
V2CEJ5OPB0YVG5J479JYES9U36B06YL
p40
sS'test_4'
p41
V2IKA1QP6AUC2COMRKLSX6V0FP9507D
p42
sS'test_3'
p43
V2G1MJUNU8LZ6XI61IZ08G8J30N02IU
p44
sS'test_2'
p45
V2X12D21O3W5XNBPA2092NYEPQ1I9F2
p46
sS'test_1'
p47
V2UWY5COW0LGR5EEX4NCC9VNU4566XF
p48
sS'all_conditions1_44'
p49
V2F6CCF0CP5KXV4O8VQOYJ4PMFB0VW8
p50
sS'all_conditions1_45'
p51
V2GKMIKMN9U8PF99T64NXL3SU66NSBJ
p52
sS'all_conditions1_46'
p53
V25TDDP8PJWKUJOEIZJUQ69Z0JUVH62
p54
sS'mandatory_review_1_25takers'
p55
V2XXL6VCPWZ9RTO2313SSASN3I209OF
p56
sS'all_conditions1_40'
p57
V27M5UUKQOYGNO7785GFG31070JIFXX
p58
sS'all_conditions1_41'
p59
V20KD21O3W5XH6UVA5QTK1EPL0D9AGN
p60
sS'test_9'
p61
V2TK6DG67D1X31BL5DKFK5JE1RGI9G1
p62
sS'test_8'
p63
V24BL0XULRGNTHU97ZLO5IP7NBBD4QV
p64
sS'all_conditions1_53'
p65
V2N970G5R98D8PE1ZK4JSWNYCORNSCQ
p66
sS'all_conditions1_52'
p67
V2XGQ4J3NAB6BLXL016PIW1TJN1HERH
p68
sS'all_conditions1_51'
p69
V267SI2KYEPLSVIB5YUXWM3OAPEGNTT
p70
sS'all_conditions1_50'
p71
V2QAKMT6YTWX4NENN2JVDC9GIE6KV05
p72
sS'all_conditions1_57'
p73
V27PQ67051QKCT27N6Y310MGI8JGFZU
p74
sS'all_conditions1_56'
p75
V26QPJWKUDD8XSM9BGHQ0E6UTWUVLA4
p76
sS'all_conditions1_55'
p77
V24ZMVHVKCJ017V8SHRY9NQW69WP579
p78
sS'all_conditions1_54'
p79
V2BXBNFSVGULF9KBD9EEG4FS3VMP7LZ
p80
sS'all_conditions1_59'
p81
V2HNBMJTUHYW2M4VU4IYS8WM1EX0IN7
p82
sS'all_conditions1_58'
p83
V21ICOK2JE1M7VVQUYZN6RZAC8SNNUK
p84
sS'test_62'
p85
V2C8VJ8EBDPGFRH1X24Q9UNDWNXO0FH
p86
sS'test_63'
p87
V2BGT3DHJHP4BJOQ1H6ZRVX9X8PW2VR
p88
sS'test_60'
p89
V25F7H57DZKPFKFK1QP4M55L8NIGC22
p90
sS'test_61'
p91
V20WNLVWJ5OPB6911CGPMZB7EUIN2U2
p92
sS'test_66'
p93
V214T6YTWX4H3NDVWHL09JI6IO042XU
p94
sS'test_67'
p95
V2P4Z9O9Z6KW45XGKUPIROFQ0TWGC3D
p96
sS'test_64'
p97
V2VMBLYHVI44OYDQ67G4NHZSBFYY2W1
p98
sS'test_65'
p99
V28RZJMJUNU8L5HXSDOWRC8D8OCO0GG
p100
sS'test_68'
p101
V2JME6AUBXHWSNIL6MHMB2WDRQ6Y2Y0
p102
sS'test_69'
p103
V2ALDHJHP4BDDQRAJLZJXCX3G8E04XS
p104
sS'rating_variations_46'
p105
V26QPJWKUDD8XSM9BGHQ0E6UTWUXALV
p106
sS'rating_variations_43'
p107
V25CQIHPCGJ2D8CUO9DOH3JPP066820
p108
sS'rating_variations_42'
p109
V2FK4E6AUBXHWYSD0YH0VEZWDZ90X1F
p110
sS'rating_variations_41'
p111
V2ZIOUQIHPCGJ8O8M1BN50H0JXDW06M
p112
sS'all_conditions1_61'
p113
V2J11LY58B727SBO1SS8D46YF0JHT8B
p114
sS'rating_variations_47'
p115
V2WAVGULF395S2HT1ENJ3QYNJJMIPB2
p116
sS'name'
p117
V2KZVWAVKI62NP18MKAQ9CQH6GT4IQE
p118
sS'rating_variations_45'
p119
V2DJVP9746OQ1YYWBKYX7351QS0RL1I
p120
sS'rating_variations_44'
p121
V2C18EBDPGFL61NVHCHINGWIO3PW2H9
p122
sS'rating_variations_6'
p123
V2V5LVWJ5OPB046MKL6DWE7EPHI63VA
p124
sS'rating_variations_49'
p125
V2C2I62NJQ2178AFU3PXBNLCVMZYNVB
p126
sS'rating_variations_48'
p127
V2E2NQY2RCJK69A1ZGPI0NUIAYXNT46
p128
sS't3'
p129
V2YDWAVKI62NJWD7SF709TH6BO8ZJRN
p130
sS'all_conditions1_67'
p131
V2U7GFL6VCPWZF2TY9QFV4S7SVRF7M1
p132
sS'experiment_name'
p133
V2CIFK0COK2JE7XDAXS0LUW6O3XZKRN
p134
sS'rating_variations_4'
p135
V2N2W4ZMAZHHRXWLBDWENYRH1S5SAJT
p136
sS'all_conditions1_65'
p137
V27A1CSTMOFXRJ3A3P95YGNXJNA2PS1
p138
sS'test_conds3'
p139
V2JV21O3W5XH0P0VDVABYHPLSUCDBHJ
p140
sS'test_conds2'
p141
V21UJ011K274JDKQB9ES8Q46U2KKBDA
p142
sS'all_conditions1_26'
p143
V2YD8ER9Y8TNKOX5DZDBFKS2OUORT6P
p144
sS'all_conditions1_27'
p145
V218W618N46UXLNJPI53EWNDSVHMQOX
p146
sS'all_conditions1_24'
p147
V2V0UUU00OQKKGFO35GJ2X26882YVVY
p148
sS'all_conditions1_25'
p149
V2GDXX2Q45UUKWZ410QN1QS8OOO2SAO
p150
sS'all_conditions1_22'
p151
V2D2UDD8XMB3Q9K5LOELTR6T4MJTEPP
p152
sS'test_73'
p153
V2RVZXR24SMEZ5DS3XUE9X8P93C10HF
p154
sS'all_conditions1_20'
p155
V2M5QYN5F3Q0JMGZJZV3W1B49NXUAE6
p156
sS'all_conditions1_21'
p157
V2AGMNCWYB49FF3YDU5S1MONS1TJNRG
p158
sS'test_case_hi'
p159
V2525UFJ51Y7QKZ50BYJ1FSTMTI5C9X
p160
sS'all_conditions1_28'
p161
V2ZQIUB2YU98JN3Z6OBC0IBJ9QCDL9P
p162
sS'all_conditions1_29'
p163
V24192NJKM05BSUZFU6N2JTP9ZY9AFO
p164
sS'all_conditions1_9'
p165
V2WGQS1CSTMOF32JDHQ31HYDN57HQNI
p166
sS'all_conditions1_8'
p167
V2J5JQ2172Z99WSCWXT3VHBU1B7QZR8
p168
sS'all_conditions1_7'
p169
V2U0PDOBDDP8PP7QFQLZXPB3QBX1D29
p170
sS'test_96'
p171
V2C2CJ011K274PIF534X1BN46Z68CA9
p172
sS'test_95'
p173
V20JLY58B727M6TM0XP419YFS0OX9U1
p174
sS'all_conditions1_4'
p175
V21NUFJ51Y7QEUALJ30SCVTMONLTADD
p176
sS'test_93'
p177
V2581SNQQ7Q676G7BXKER42TQHAQ9TA
p178
sS'all_conditions1_2'
p179
V26U6SK9RJ85O5T5ZUU1ASMOOYTGT59
p180
sS'test_91'
p181
V27ZM8JIA0RYNPK88WSD08BMJY3A503
p182
sS'test_90'
p183
V2H9YNJ92NJKM6GH7W1LH1W2GYY2C7I
p184
sS'test_17'
p185
V2I7C6SK9RJ85UAOKRPDADPMOTZY4SK
p186
sS'test_16'
p187
V2UKAC9KSSZVX3DWPI2LKTOYGSRP2K5
p188
sS'test_15'
p189
V26DH8MZ9O9Z6Q7AKZIQHKRRLKZT09P
p190
sS'test_14'
p191
V2GFR24SMEZZ2STQ70HL8S9Y3D2P2J6
p192
sS'test_13'
p193
V2H6UQIHPCGJ2JD79G4WXK0JPU1B71N
p194
sS'test_12'
p195
V2CO6RLPHIT3H17GGXQX2QJQ26GV9H0
p196
sS'test_11'
p197
V2IBHV8ER9Y8TTVO7C0D5NFHS7XF4RW
p198
sS'test_10'
p199
V2IKA1QP6AUC2COMRKLSX6V0FP9570K
p200
sS'all_conditions1_42'
p201
V2JGU98JHSTLB9W60OR0IRBJERFFEQG
p202
sS'test_19'
p203
V2CPWGKCCVLL3IL9OZP1PT4C9SZMV5K
p204
sS'test_18'
p205
V2GOKW4ZMAZHHX2R038FNQVRH6TA9IT
p206
sS'blah2'
p207
V2UHKPFE4EGDHJX8QYG99QZW6L6M8IY
p208
sS'3'
p209
V283PHIT3HVWA1VORFVAQ517231WCKJ
p210
sS'all_conditions1_35'
p211
V2C18EBDPGFL61NVHCHINGWIO3PU2H7
p212
sS'all_conditions1_34'
p213
V2FWPLSP75KLMC7PO1I8QHQVJZSNZTL
p214
sS'all_conditions1_37'
p215
V2TEY2AOO2GMMKRU9TYJCP6IAIQU55U
p216
sS'all_conditions1_36'
p217
V2A79RA7S5WM1CK4D1NY0MMHLI6UUZ7
p218
sS'all_conditions1_31'
p219
V27IJG5TYMNCW4MAUSHJSVHX197QIM7
p220
sS'all_conditions1_30'
p221
V2ACHYW2GTP9RGIYQ9US6CYSONV2NS4
p222
sS'all_conditions1_33'
p223
V2HFULRGNTBJ3SXJIING7Q62KPZBT7O
p224
sS'all_conditions1_32'
p225
V28YNTBJ3MMDXBQVS0ETKKB9MLLPXBW
p226
sS'all_conditions1_39'
p227
V2G1MJUNU8LZ6XI61IZ08G8J33292I0
p228
sS'all_conditions1_38'
p229
V2A79RA7S5WM1CK4D1NY0MMHLI6UZUC
p230
sS'test_32'
p231
V2XANTL0XULRGT4H4GUDD05FPCWZ2OP
p232
sS'test_88'
p233
V2H9YNJ92NJKM6GH7W1LH1W2GYY27CD
p234
sS'test_89'
p235
V27C8Y1THV8ERF9EE0S9M2SM5POA0NO
p236
sS'test_84'
p237
V2EXB0HFL42J1R9BTOFT7P0IGKTA0LM
p238
sS'test_85'
p239
V29HVXX2Q45UUQ1UJTV9W4NS8TPT9RX
p240
sS'test_86'
p241
V2X7GSNTL0XULXRTEORUMPDX5KY00MO
p242
sS'rating_variations_17'
p243
V2W36VCPWZ9RNJ7O989J7VN3D14XPA7
p244
sS'rating_variations_10'
p245
V2D2UDD8XMB3Q9K5LOELTR6T4MJVEPR
p246
sS'test_81'
p247
V2P3Z6R70G5R9EOE4G357ZSSTS759P5
p248
sS'rating_variations_12'
p249
V2FILWSBRI8IUHD4FMGAHVTLBB942ET
p250
sS'test_83'
p251
V2VHZ2MIKMN9UE0FJGGKWZXI3X3R9QW
p252
sS'all_conditions1_69'
p253
V25XXRDS4IC1E4OTIWND14A2I3M5ZWB
p254
sS'guarantee_anonymous_1'
p255
V2G4AZHHRRLFQ6ZT88Z81NHO9MZ2NE2
p256
sS'test_updown'
p257
V2FILWSBRI8IUHD4FMGAHVTLB8UX2EP
p258
sS'test_no_args3'
p259
V2RJQP6AUC26DMHDYE5UV3FK0HX3928
p260
sS'test_no_args2'
p261
V2C73TVOK5UFJBC4S3MFZIYQS6LB74Q
p262
sS'amk_testafgra'
p263
V2FK4E6AUBXHWYSD0YH0VEZWDVFEX11
p264
sS'rating_variations_24'
p265
V22OVCPWZ9RND2TUGE0YSQ3DTOI5QBV
p266
sS'test_80'
p267
V2V9ILKH1Q6SVWJNTLUHU9L5OG450JK
p268
sS'rating_variations_18'
p269
V2J1ENLVWJ5OPHB4GT7ZYPWB7MDDT1T
p270
sS'another_test'
p271
V22H6R70G5R98JJPO8MYWVSTN243AQ7
p272
sS'rating_variations_19'
p273
V2ACHYW2GTP9RGIYQ9US6CYSONV4NS6
p274
sS'rating_variations_8'
p275
V2P3Z6R70G5R9EOE4G357ZSSTVMFP9S
p276
sS'test_cycle_10'
p277
V2LHMAZHHRRLFWBU803IH4KHOEOGDM3
p278
sS'rating_variations_14'
p279
V24VWIOV1S7SN9OZ179UYGZ8NGFZKZ3
p280
sS'rating_variations_15'
p281
V2SVDP8PJWKUDJJ37OBH3CZ0BEIXI7Y
p282
sS'all_conditions1_63'
p283
V2GFR24SMEZZ2STQ70HL8S9Y3GHY2JC
p284
sS'rating_variations_16'
p285
V22H6R70G5R98JJPO8MYWVSTN60KQA0
p286
sS'all_conditions1_23'
p287
V21MF0OHOVR14O8Q9FT02KECWIUZ54P
p288
sS'test_31'
p289
V2PWR9Y8TNKIM53SQXN8S5OM0UPNV8M
p290
sS'test_30'
p291
V2NAK9RJ85OZI5PN7NIGMROQ5J5HV7Z
p292
sS'test_33'
p293
V2E2NQY2RCJK69A1ZGPI0NUIAVIC4T9
p294
sS'test_87'
p295
V29DQ8H88MQU6RGUW8K91UXX4FRC9SL
p296
sS'test_35'
p297
V2B3RGNTBJ3MMJ8B02FE65KHBEV5V9B
p298
sS'test_34'
p299
V29D7WGKCCVLL9NGOGU8ASQ4CEWJ4U0
p300
sS'test_37'
p301
V2PG1THV8ER9YE4T5VUQSP5KFM1V2P6
p302
sS'test_36'
p303
V2DKDIPDOBDDPE0PHX24DBXMB8ZW0BZ
p304
sS'test_39'
p305
V2K9Y0LWSBRI8O5HNB208MHSTQKW0C6
p306
sS'test_38'
p307
V24ZMVHVKCJ017V8SHRY9NQW66HG755
p308
sS'rating_variations_11'
p309
V2F55F3Q0JG5T4XTX9624CF9S0GLDHT
p310
sS'all_conditions1_80'
p311
V248Q7Q67051QQNTCEAKQF1XMO61XD3
p312
sS'all_conditions1_81'
p313
V236FXRDS4IC1K9J8AR6M41A2QJ0VY7
p314
sS'all_conditions1_82'
p315
V2XCLF395SW6NMCLDGVPNMBYF930SEJ
p316
sS'second_experiment'
p317
V2P4Z9O9Z6KW45XGKUPIROFQ0SFA3CZ
p318
sS'all_conditions1_84'
p319
V2Z3KH1Q6SVQ8NJE732XL8OBVK632LE
p320
sS'test_82'
p321
V29E1VP9746OQ73TB3FH6A051VT50KJ
p322
sS'all_conditions1_86'
p323
V227HIT3HVWAVQTCN0RH2472ZHXSLD6
p324
sS'all_conditions1_87'
p325
V2PQMQU6L5OBVIT7CA5VALJF7OI2XEW
p326
sS'all_conditions1_88'
p327
V2XCLF395SW6NMCLDGVPNMBYF930ES5
p328
sS'all_conditions1_48'
p329
V2LRF9SSSHX11PZTD6D85I8J4WD3ZV1
p330
sS'test_why_leave_collective_gain'
p331
V21UJ011K274JDKQB9ES8Q46U2OWBDU
p332
sS'rating_variations_13'
p333
V27ZM8JIA0RYNPK88WSD08BMJ1IL056
p334
sS'all_conditions1_85'
p335
V2BGT3DHJHP4BJOQ1H6ZRVX9XB44V2P
p336
sS'test_48'
p337
V2PZ88MQU6L5OH6I3EZOX7AIJKG8VCS
p338
sS'all_conditions1_19'
p339
V2SM9F9SSSHX17UU851WH8F8JCCQUYG
p340
sS'all_conditions1_18'
p341
V2TX806UFBNFS1R06SB05VW6NOPH2G8
p342
sS'test_conds'
p343
V2FNPQJQ9OPLL3NDFZZOGBKCO4Q2Z1D
p344
sS'all_conditions1_16'
p345
V29DQ8H88MQU6RGUW8K91UXX4I6KS99
p346
sS'all_conditions1_15'
p347
V2KGOCCF0CP5K30Z30Q9X1G4PUVPVU9
p348
sS'all_conditions1_14'
p349
V28RY8TNKIMZSSGQ0U0TOP0PG334XA1
p350
sS'all_conditions1_13'
p351
V2CUNHMVHVKCJ6C75FFVJA9KQ4U3534
p352
sS'all_conditions1_12'
p353
V2WGQS1CSTMOF32JDHQ31HYDN57HNQF
p354
sS'all_conditions1_11'
p355
V27E618N46UXFIOAQAK5TQDSN18JPRD
p356
sS'all_conditions1_10'
p357
V2XE40SPW1INMNR4BHRUNDB6BNAH2F9
p358
sS'rating_variations_38'
p359
V2PAV7WGKCCVLREIVGBDHDPQ4KXRT3L
p360
sS'rating_variations_39'
p361
V21ICOK2JE1M7VVQUYZN6RZAC8SPNUM
p362
sS'guarantee_feedback_shown_1'
p363
V2Y0T3HVWAVKICDT43AS75Z99Y0HNFK
p364
sS'new_schema'
p365
V2JYMMEGOOGQSIXC3NITSHIUUYUICC5
p366
sS'all_conditions1_89'
p367
V2ELV0FK0COK2PP77KXBKCLRWEC1IP3
p368
sS'rating_variations_32'
p369
V2TX806UFBNFS1R06SB05VW6NOPJ2GA
p370
sS'rating_variations_33'
p371
V2EXB0HFL42J1R9BTOFT7P0IGN8LL0F
p372
sS'rating_variations_30'
p373
V2DS6X3YOCCF0I0B5AXKIQIIX647RQ8
p374
sS'rating_variations_31'
p375
V2OV1X3V0FK0CUV84R9D7SKK9TF0FMF
p376
sS'rating_variations_36'
p377
V26E1INMHGYQ4PETVOE2FPFFO6MLK7A
p378
sS'rating_variations_37'
p379
V29DGULF395SWCYMMS0UN1NJB635QC2
p380
sS'rating_variations_34'
p381
V2UHKPFE4EGDHJX8QYG99QZW6P23I8L
p382
sS'rating_variations_35'
p383
V217FE4EGDHDM8GRTVHEZZ6HE7USAKS
p384
sS'rating_variations_3'
p385
V2MAW6NG1FS3N4YPWBNSF2SZLALVKYC
p386
sS'all_conditions1_49'
p387
V2P4QU6L5OBVCOCXIAC1IMF7G2PCFY3
p388
sS'all_conditions1_47'
p389
V2LX0OHOVR14I3VUNYHTHHCWAEL556A
p390
sS'test_28'
p391
V248Y2RCJK63Z1P9248BULAQ9OUXV60
p392
sS'test_29'
p393
V2SIHFL42J1LYBJHSFFD0LGFKMMU2NA
p394
sS'test_26'
p395
V2C73TVOK5UFJBC4S3MFZIYQS6LL740
p396
sS'test_27'
p397
V2DDOX7H57DZKVQKPRO4HGM25QHB0A4
p398
sS'test_24'
p399
V2NFBAT2D5NQYTGLO38AG8TYMSLP73F
p400
sS'test_neg2..2'
p401
V2YXL42J1LY58HI8SZ89GIKHD6FUP4S
p402
sS'test_22'
p403
V2Z3KH1Q6SVQ8NJE732XL8OBVHRU2L8
p404
sS'aah'
p405
V28J4IXKO2L92NPIHNEO31OCCJUUCD5
p406
sS'test_20'
p407
V2G2PFE4EGDHDSDB6LQ0N2W6HJ8Z9J5
p408
sS'test_21'
p409
V23QJIA0RYNJ98YP5Z8WBPJTUM7P724
p410
sS'all_conditions1_96'
p411
V2MQB727M0IGFQSJMJ66SYF4VQCWYDB
p412
sS'all_conditions1_95'
p413
V27DJ8EBDPGFLC6IA970RQDWIWJ3G15
p414
sS'all_conditions1_94'
p415
V2BFFCD45XCETTOY86S9N6TGPCOBZX4
p416
sS'all_conditions1_93'
p417
V2IDP9746OQ1ST1WS3EY081QKKBT2MG
p418
sS'all_conditions1_92'
p419
V294EZZ2MIKMNF5EAM6U8WWWXQRU7OG
p420
sS'all_conditions1_91'
p421
V2TEA6X3YOCCF6NVQX5GTLNII5MIQPE
p422
sS'all_conditions1_90'
p423
V2F84J3NAB6BFSQL9B69T4TJFL4FSF1
p424
sS'all_conditions1_43'
p425
V2FN8B727M0IGLVNYEEPFVVF436PXC3
p426
sS'mandatory_review_personal_gain_25subjects'
p427
V28AQV66RLPHIZENG9IMKL62NRDU6E0
p428
sS'test_23'
p429
V2U78PJWKUDD83XHO3B0Z3B6UYXZ9K4
p430
sS'test_44'
p431
V2I0NMHGYQ4J3TLHRONDFIOYYN2U9M9
p432
sS'rating_variations_28'
p433
V2JJO3W5XH0JPV3ONX65POSP7D8PDJY
p434
sS'blah'
p435
V2BU26DG67D1X9660X83ON2JE5EU8F7
p436
sS'all_conditions1_6'
p437
V2O8EOZFYQS1CY4S9S5IDV4IC920IL5
p438
sS'all_conditions1_5'
p439
V2Q2QW618N46U3QIYHDOCHTND0BVNPO
p440
sS'experiment_1'
p441
V2I63W5XH0JPPYT85BMGLVP75SV1KEG
p442
sS'test_59'
p443
V243VWJ5OPB0Y1R5TBUNBAEP9ZCU4WZ
p444
sS'test_94'
p445
V2525UFJ51Y7QKZ50BYJ1FSTMTOQC9U
p446
sS'test_53'
p447
V23DHVKCJ011K8IA4KHBQZ618SDZ79W
p448
sS'all_conditions1_3'
p449
V2A4OFXRDS4IC7P4Y05AFP11AA6WUXA
p450
sS'test_51'
p451
V2H6HOVR14IXKUDRUFP5CZA6X87H787
p452
sS'test_50'
p453
V29UGW40SPW1ITXN1BYVJ6NABBK80D6
p454
sS'test_57'
p455
V2JVIPDOBDDP8VU257L480MB3VC2C1L
p456
sS'test_56'
p457
V2XXL6VCPWZ9RTO2313SSASN3I299OO
p458
sS'test_55'
p459
V25L3FDEY5COW6WMCCBZCUFLCB4G2TB
p460
sS'test_92'
p461
V2JV5NQYN5F3Q6UMQ66DNFWYB9I8C85
p462
sS'all_conditions1_17'
p463
V2J1E1M7PKK9LX7C9CI307LZXX99ZSW
p464
sS'test_review_mandatory_yes'
p465
V23WZZ2MIKMN90JVUBBZTZWXI81E8P6
p466
sS'rating_variations_9'
p467
V2TK6DG67D1X31BL5DKFK5JE1UVS9G8
p468
sS'all_conditions1_1'
p469
V2DABRI8IUB2Y0KE4U0KLE3L0NZKH5M
p470
sS'rating_variations_2'
p471
V25LW5XH0JPPSODQJRXCSS75KTAAFLD
p472
sS'all_conditions1_83'
p473
V2581SNQQ7Q676G7BXKER42TQKPZT90
p474
sS'all_conditions1_60'
p475
V28YNTBJ3MMDXBQVS0ETKKB9MLLPBXA
p476
sS'rating_variations_1'
p477
V207PSI2KYEPLY0DQXTD6ZJ3OI5TMS4
p478
sS'all_conditions1_66'
p479
V2EPH57DZKPFEAPMYULD28L8IHB1D3K
p480
sS'rating_variations_7'
p481
V2VHZ2MIKMN9UE0FJGGKWZXI30I2Q9L
p482
sS'all_conditions1_64'
p483
V26XE4EGDHDM2BWE3MVQW9HEZECGLBZ
p484
sS'rating_variations_5'
p485
V29TRI8IUB2YUFJP251CB6L0FJ7DI6Z
p486
sS'test_cycle_2'
p487
V27D66RLPHIT3N62V8S965NJQ7B78GK
p488
sS'test_cycle_3'
p489
V2J5JKM05BMJT0S4HFOKPCRA7XFWIDS
p490
sS'test_cycle_1'
p491
V28UJK63ZVE3HXBQFVIH9ML5R8P1AZF
p492
sS'test_cycle_6'
p493
V2KVHJHP4BDDKMF4T40O903G3AHW5YD
p494
sS'test_cycle_7'
p495
V22GHVI44OS2KR5EY0MQSEAP5GB05Z4
p496
sS'test'
p497
V2PW4BLYHVI44U385Y2ZDQEZSFY01VK
p498
sS'test_cycle_5'
p499
V24NF3Q0JG5TYSYIHBJV9I9SSXRXIEL
p500
sS'test_cycle_4'
p501
V2DKDIPDOBDDPE0PHX24DBXMB803B0J
p502
sS'test_neg2..2(2)'
p503
V2DJVP9746OQ1YYWBKYX7351QPLK1LU
p504
sS'test_cycle_8'
p505
V2F84J3NAB6BFSQL9B69T4TJFIQEFSS
p506
sS'test_cycle_9'
p507
V2UHKPFE4EGDHJX8QYG99QZW6MOZ8IC
p508
sS'all_conditions1_62'
p509
V2OVZKPFE4EGDNOSNITZICNZWE5FH71
p510
sS'test_normal'
p511
V2KXDEY5COW0LM25OLKIFOC6VS3W4VT
p512
sS'test_58'
p513
V2UCCF806UFBNL3117T63C5SWBW90EZ
p514
sS'rating_variations_40'
p515
V2XCLF395SW6NMCLDGVPNMBYF932ES7
p516
sS'thank_on_bad_review_mandatory_review_experimental_validity_reason_25subjects'
p517
V27DJ8EBDPGFLC6IA970RQDWIWISG1S
p518
sS'test_25'
p519
V2IDP9746OQ1ST1WS3EY081QKHWK2MA
p520
sS'rating_variations_25'
p521
V25L3FDEY5COW6WMCCBZCUFLCEJRT2A
p522
sS'test_49'
p523
V2FKAOO2GMMEGUZMB5KD6LAA2XNB77K
p524
sS'rating_variations_27'
p525
V2XGQ4J3NAB6BLXL016PIW1TJN1JERJ
p526
sS'rating_variations_26'
p527
V267SI2KYEPLSVIB5YUXWM3OAPEINTV
p528
sS'rating_variations_21'
p529
V2J5JKM05BMJT0S4HFOKPCRA70T0DIM
p530
sS'rating_variations_20'
p531
V2JGU98JHSTLB9W60OR0IRBJERFHEQI
p532
sS'rating_variations_23'
p533
V2XE40SPW1INMNR4BHRUNDB6BNAJ2FB
p534
sS'rating_variations_22'
p535
V2GYKPEIB9BAWR3SI2YWV0UD3UHUX0C
p536
sS'test_40'
p537
V2VU1PC6SK9RJEGUKV75HPAAPRXH2QX
p538
sS'test_41'
p539
V2ZQIUB2YU98JN3Z6OBC0IBJ9NX49L7
p540
sS'test_42'
p541
V2KXDEY5COW0LM25OLKIFOC6VS3S4VP
p542
sS'test_43'
p543
V2I3Y58B727M0ORL5ULS61FSVKDNVAQ
p544
sS'rating_variations_29'
p545
V2KLFDEY5COW0RRXKGG3RILC63BXU3C
p546
sS'test_45'
p547
V2IANQQ7Q670571QX0ZS2WQC12V8VBL
p548
sS'test_46'
p549
V29UXKNQY2RCJQH9K8MUHU0KUNJJ2RY
p550
sS'test_47'
p551
V2WIOHOVR14IXQZ86MA8EFWA62CR76L
p552
sS'all_conditions1_79'
p553
V28RZJMJUNU8L5HXSDOWRC8D8RRXG02
p554
sS'all_conditions1_78'
p555
V2PW4BLYHVI44U385Y2ZDQEZSJYQV18
p556
sS'all_conditions1_77'
p557
V2CO6RLPHIT3H17GGXQX2QJQ29V3H9D
p558
sS'test_52'
p559
V29QSV7WGKCCVRW9XNBUMKAPQ9L22SM
p560
sS'all_conditions1_71'
p561
V2C2I62NJQ2178AFU3PXBNLCVMZWNV9
p562
sS'all_conditions1_70'
p563
V2DMZMAZHHRRLL1690VMRK1KHWXGLC6
p564
sS'all_conditions1_73'
p565
V2MFH0JPPSI2K4PV65XY5NLM6475IOM
p566
sS'all_conditions1_72'
p567
V235CWYB49F9SY3NIE9AOQST5PTGPTQ
p568
sS'all_conditions1_75'
p569
V2CUPWZ9RNDWIU67DK0E3GTGU9RZSDQ
p570
sS'all_conditions1_74'
p571
V2LOUXFCD45XCK4TY5VKKLN3TOD6VX1
p572
sS'base_case_2'
p573
V2PT727M0IGFKNO7RBNJVI4VIWAAEZ4
p574
sS'all_conditions1_76'
p575
V24C8LZ6R70G5XKEYLRUVH7WS0HP7N1
p576
s.