(dp0
S'test2'
p1
V2DJINMHGYQ4J9YGWJJ6MIFOY25GL8F
p2
sS'test_neg1..3'
p3
V2U0PDOBDDP8PP7QFQLZXPB3Q8IW2DW
p4
sS'test_75'
p5
V2EWRSQV66RLPNTZOU3NAYKI67WCC4Y
p6
sS'test_74'
p7
V2AKD5NQYN5F3WBP1I1PMQCWYGD27B6
p8
sS'test_77'
p9
V26OAUC26DG67JC3O886K3COK7S7C53
p10
sS'test_76'
p11
V2VVD2AC9KSSZ183N3CWUXKQO3PG0I8
p12
sS'test_71'
p13
V2ADOK5UFJ51YD1K9CNPQV1CSYVH7AB
p14
sS'test_70'
p15
V217EIB9BAWLSS8VBI3OUG3MTW022ZR
p16
sS'test_no_args'
p17
V2NFBAT2D5NQYTGLO38AG8TYMSLF735
p18
sS'test_case_hi'
p19
V2525UFJ51Y7QKZ50BYJ1FSTMTI5C9X
p20
sS'test_79'
p21
V2AOYTWX4H3H2VMAYMH7I9IJRGEY4ZP
p22
sS'test_78'
p23
V2Y7CGJ2D21O32G32DRGPVI2K3NIC6J
p24
sS'test_49'
p25
V2FKAOO2GMMEGUZMB5KD6LAA2XNB77K
p26
sS'rating_variations_50'
p27
V2IKA1QP6AUC2COMRKLSX6V0FSOG07L
p28
sS'test_review_mandatory_yes'
p29
V23WZZ2MIKMN90JVUBBZTZWXI81E8P6
p30
sS'thank_on_bad_review_1'
p31
V2A79RA7S5WM1CK4D1NY0MMHLI14UZ7
p32
sS'test_7'
p33
V2UZJHP4BDDKGA9EC550X6G35C546ZC
p34
sS'test_6'
p35
V2K6H1XERSQV6C2RAUQK3KVWA0TB080
p36
sS'test_5'
p37
V2CEJ5OPB0YVG5J479JYES9U36B06YL
p38
sS'test_4'
p39
V2IKA1QP6AUC2COMRKLSX6V0FP9507D
p40
sS'all_conditions1_48'
p41
V2LRF9SSSHX11PZTD6D85I8J4WD3ZV1
p42
sS'test_2'
p43
V2X12D21O3W5XNBPA2092NYEPQ1I9F2
p44
sS'test_1'
p45
V2UWY5COW0LGR5EEX4NCC9VNU4566XF
p46
sS'all_conditions1_44'
p47
V2F6CCF0CP5KXV4O8VQOYJ4PMFB0VW8
p48
sS'all_conditions1_45'
p49
V2GKMIKMN9U8PF99T64NXL3SU66NSBJ
p50
sS'all_conditions1_46'
p51
V25TDDP8PJWKUJOEIZJUQ69Z0JUVH62
p52
sS'mandatory_review_1_25takers'
p53
V2XXL6VCPWZ9RTO2313SSASN3I209OF
p54
sS'all_conditions1_40'
p55
V27M5UUKQOYGNO7785GFG31070JIFXX
p56
sS'all_conditions1_41'
p57
V20KD21O3W5XH6UVA5QTK1EPL0D9AGN
p58
sS'test_9'
p59
V2TK6DG67D1X31BL5DKFK5JE1RGI9G1
p60
sS'test_8'
p61
V24BL0XULRGNTHU97ZLO5IP7NBBD4QV
p62
sS'all_conditions1_53'
p63
V2N970G5R98D8PE1ZK4JSWNYCORNSCQ
p64
sS'all_conditions1_52'
p65
V2XGQ4J3NAB6BLXL016PIW1TJN1HERH
p66
sS'all_conditions1_51'
p67
V267SI2KYEPLSVIB5YUXWM3OAPEGNTT
p68
sS'all_conditions1_50'
p69
V2QAKMT6YTWX4NENN2JVDC9GIE6KV05
p70
sS'all_conditions1_57'
p71
V27PQ67051QKCT27N6Y310MGI8JGFZU
p72
sS'all_conditions1_56'
p73
V26QPJWKUDD8XSM9BGHQ0E6UTWUVLA4
p74
sS'all_conditions1_55'
p75
V24ZMVHVKCJ017V8SHRY9NQW69WP579
p76
sS'all_conditions1_54'
p77
V2BXBNFSVGULF9KBD9EEG4FS3VMP7LZ
p78
sS'all_conditions1_59'
p79
V2HNBMJTUHYW2M4VU4IYS8WM1EX0IN7
p80
sS'all_conditions1_58'
p81
V21ICOK2JE1M7VVQUYZN6RZAC8SNNUK
p82
sS'test_62'
p83
V2C8VJ8EBDPGFRH1X24Q9UNDWNXO0FH
p84
sS'test_63'
p85
V2BGT3DHJHP4BJOQ1H6ZRVX9X8PW2VR
p86
sS'test_60'
p87
V25F7H57DZKPFKFK1QP4M55L8NIGC22
p88
sS'test_61'
p89
V20WNLVWJ5OPB6911CGPMZB7EUIN2U2
p90
sS'test_66'
p91
V214T6YTWX4H3NDVWHL09JI6IO042XU
p92
sS'test_67'
p93
V2P4Z9O9Z6KW45XGKUPIROFQ0TWGC3D
p94
sS'test_64'
p95
V2VMBLYHVI44OYDQ67G4NHZSBFYY2W1
p96
sS'test_65'
p97
V28RZJMJUNU8L5HXSDOWRC8D8OCO0GG
p98
sS'test_68'
p99
V2JME6AUBXHWSNIL6MHMB2WDRQ6Y2Y0
p100
sS'test_69'
p101
V2ALDHJHP4BDDQRAJLZJXCX3G8E04XS
p102
sS'test_cycle_6'
p103
V2KVHJHP4BDDKMF4T40O903G3AHW5YD
p104
sS'rating_variations_46'
p105
V26QPJWKUDD8XSM9BGHQ0E6UTWUXALV
p106
sS'rating_variations_43'
p107
V25CQIHPCGJ2D8CUO9DOH3JPP066820
p108
sS'rating_variations_42'
p109
V2FK4E6AUBXHWYSD0YH0VEZWDZ90X1F
p110
sS'rating_variations_41'
p111
V2ZIOUQIHPCGJ8O8M1BN50H0JXDW06M
p112
sS'rating_variations_1'
p113
V207PSI2KYEPLY0DQXTD6ZJ3OI5TMS4
p114
sS'rating_variations_47'
p115
V2WAVGULF395S2HT1ENJ3QYNJJMIPB2
p116
sS'name'
p117
V2KZVWAVKI62NP18MKAQ9CQH6GT4IQE
p118
sS'rating_variations_45'
p119
V2DJVP9746OQ1YYWBKYX7351QS0RL1I
p120
sS'rating_variations_44'
p121
V2C18EBDPGFL61NVHCHINGWIO3PW2H9
p122
sS'all_conditions1_66'
p123
V2EPH57DZKPFEAPMYULD28L8IHB1D3K
p124
sS'rating_variations_49'
p125
V2C2I62NJQ2178AFU3PXBNLCVMZYNVB
p126
sS'rating_variations_48'
p127
V2E2NQY2RCJK69A1ZGPI0NUIAYXNT46
p128
sS't3'
p129
V2YDWAVKI62NJWD7SF709TH6BO8ZJRN
p130
sS'all_conditions1_70'
p131
V2DMZMAZHHRRLL1690VMRK1KHWXGLC6
p132
sS'rating_variations_7'
p133
V2VHZ2MIKMN9UE0FJGGKWZXI30I2Q9L
p134
sS'experiment_name'
p135
V2CIFK0COK2JE7XDAXS0LUW6O3XZKRN
p136
sS'all_conditions1_64'
p137
V26XE4EGDHDM2BWE3MVQW9HEZECGLBZ
p138
sS'test_45'
p139
V2IANQQ7Q670571QX0ZS2WQC12V8VBL
p140
sS'rating_variations_5'
p141
V29TRI8IUB2YUFJP251CB6L0FJ7DI6Z
p142
sS'test_conds3'
p143
V2JV21O3W5XH0P0VDVABYHPLSUCDBHJ
p144
sS'test_conds2'
p145
V21UJ011K274JDKQB9ES8Q46U2KKBDA
p146
sS'all_conditions1_26'
p147
V2YD8ER9Y8TNKOX5DZDBFKS2OUORT6P
p148
sS'all_conditions1_27'
p149
V218W618N46UXLNJPI53EWNDSVHMQOX
p150
sS'proposer_chooses_timing_18'
p151
V21UCVLL3CA33ZMKDO939SQU8ZCJZ9K
p152
sS'all_conditions1_25'
p153
V2GDXX2Q45UUKWZ410QN1QS8OOO2SAO
p154
sS'all_conditions1_22'
p155
V2D2UDD8XMB3Q9K5LOELTR6T4MJTEPP
p156
sS'test_73'
p157
V2RVZXR24SMEZ5DS3XUE9X8P93C10HF
p158
sS'all_conditions1_20'
p159
V2M5QYN5F3Q0JMGZJZV3W1B49NXUAE6
p160
sS'all_conditions1_21'
p161
V2AGMNCWYB49FF3YDU5S1MONS1TJNRG
p162
sS'proposer_chooses_timing_12'
p163
V2FNCOW0LGRZ3LH13JHXVSUZXF61Z8V
p164
sS'proposer_chooses_timing_13'
p165
V2NDCPWZ9RNDWVT5PQCJN8DTHWG3RC0
p166
sS'proposer_chooses_timing_10'
p167
V24RU8P9Y38TW92SRQZPIR0JUCUMHYY
p168
sS'test_72'
p169
V2S3YHVI44OS2QW0TQV5ZVBAPAKU4YY
p170
sS'proposer_chooses_timing_16'
p171
V2MCFJ51Y7QEOCK8EQ63SYMOGZ6DEB3
p172
sS'proposer_chooses_timing_17'
p173
V2TATMOFXRDS4VHB2WIEXOFM23O1SVL
p174
sS'all_conditions1_28'
p175
V2ZQIUB2YU98JN3Z6OBC0IBJ9QCDL9P
p176
sS'proposer_chooses_timing_15'
p177
V2X2CCVLL3CA3GRRYNVVCENQV9BWY80
p178
sS'proposer_chooses_timing_46'
p179
V23WC1PC6SK9RWDFCXNQEMMABR1OP1G
p180
sS'all_conditions1_9'
p181
V2WGQS1CSTMOF32JDHQ31HYDN57HQNI
p182
sS'all_conditions1_8'
p183
V2J5JQ2172Z99WSCWXT3VHBU1B7QZR8
p184
sS'all_conditions1_7'
p185
V2U0PDOBDDP8PP7QFQLZXPB3QBX1D29
p186
sS'test_96'
p187
V2C2CJ011K274PIF534X1BN46Z68CA9
p188
sS'test_95'
p189
V20JLY58B727M6TM0XP419YFS0OX9U1
p190
sS'all_conditions1_4'
p191
V21NUFJ51Y7QEUALJ30SCVTMONLTADD
p192
sS'test_93'
p193
V2581SNQQ7Q676G7BXKER42TQHAQ9TA
p194
sS'all_conditions1_2'
p195
V26U6SK9RJ85O5T5ZUU1ASMOOYTGT59
p196
sS'test_91'
p197
V27ZM8JIA0RYNPK88WSD08BMJY3A503
p198
sS'test_90'
p199
V2H9YNJ92NJKM6GH7W1LH1W2GYY2C7I
p200
sS'test_17'
p201
V2I7C6SK9RJ85UAOKRPDADPMOTZY4SK
p202
sS'test_16'
p203
V2UKAC9KSSZVX3DWPI2LKTOYGSRP2K5
p204
sS'test_15'
p205
V26DH8MZ9O9Z6Q7AKZIQHKRRLKZT09P
p206
sS'test_14'
p207
V2GFR24SMEZZ2STQ70HL8S9Y3D2P2J6
p208
sS'test_13'
p209
V2H6UQIHPCGJ2JD79G4WXK0JPU1B71N
p210
sS'test_12'
p211
V2CO6RLPHIT3H17GGXQX2QJQ26GV9H0
p212
sS'test_11'
p213
V2IBHV8ER9Y8TTVO7C0D5NFHS7XF4RW
p214
sS'test_10'
p215
V2IKA1QP6AUC2COMRKLSX6V0FP9570K
p216
sS'proposer_chooses_timing_40'
p217
V2Q69Z6KW4ZMACMRFPQ6Q5ONOX6H6FS
p218
sS'proposer_chooses_timing_42'
p219
V2MCUKQOYGNIWES2WMLR157SWIOQHZP
p220
sS'test_19'
p221
V2CPWGKCCVLL3IL9OZP1PT4C9SZMV5K
p222
sS'test_18'
p223
V2GOKW4ZMAZHHX2R038FNQVRH6TA9IT
p224
sS'3'
p225
V283PHIT3HVWA1VORFVAQ517231WCKJ
p226
sS'test_28'
p227
V248Y2RCJK63Z1P9248BULAQ9OUXV60
p228
sS'all_conditions1_18'
p229
V2TX806UFBNFS1R06SB05VW6NOPH2G8
p230
sS'rating_variations_25'
p231
V25L3FDEY5COW6WMCCBZCUFLCEJRT2A
p232
sS'all_conditions1_92'
p233
V294EZZ2MIKMNF5EAM6U8WWWXQRU7OG
p234
sS'all_conditions1_35'
p235
V2C18EBDPGFL61NVHCHINGWIO3PU2H7
p236
sS'all_conditions1_34'
p237
V2FWPLSP75KLMC7PO1I8QHQVJZSNZTL
p238
sS'all_conditions1_37'
p239
V2TEY2AOO2GMMKRU9TYJCP6IAIQU55U
p240
sS'all_conditions1_36'
p241
V2A79RA7S5WM1CK4D1NY0MMHLI6UUZ7
p242
sS'all_conditions1_31'
p243
V27IJG5TYMNCW4MAUSHJSVHX197QIM7
p244
sS'all_conditions1_30'
p245
V2ACHYW2GTP9RGIYQ9US6CYSONV2NS4
p246
sS'all_conditions1_33'
p247
V2HFULRGNTBJ3SXJIING7Q62KPZBT7O
p248
sS'all_conditions1_32'
p249
V28YNTBJ3MMDXBQVS0ETKKB9MLLPXBW
p250
sS'proposer_chooses_timing_43'
p251
V222H1Q6SVQ8HLDWESBC5TBVDKGR3MQ
p252
sS'all_conditions1_79'
p253
V28RZJMJUNU8L5HXSDOWRC8D8RRXG02
p254
sS'all_conditions1_39'
p255
V2G1MJUNU8LZ6XI61IZ08G8J33292I0
p256
sS'all_conditions1_38'
p257
V2A79RA7S5WM1CK4D1NY0MMHLI6UZUC
p258
sS'test'
p259
V2PW4BLYHVI44U385Y2ZDQEZSFY01VK
p260
sS'test_88'
p261
V2H9YNJ92NJKM6GH7W1LH1W2GYY27CD
p262
sS'test_89'
p263
V27C8Y1THV8ERF9EE0S9M2SM5POA0NO
p264
sS'test_87'
p265
V29DQ8H88MQU6RGUW8K91UXX4FRC9SL
p266
sS'test_84'
p267
V2EXB0HFL42J1R9BTOFT7P0IGKTA0LM
p268
sS'test_85'
p269
V29HVXX2Q45UUQ1UJTV9W4NS8TPT9RX
p270
sS'test_86'
p271
V2X7GSNTL0XULXRTEORUMPDX5KY00MO
p272
sS'rating_variations_17'
p273
V2W36VCPWZ9RNJ7O989J7VN3D14XPA7
p274
sS'rating_variations_10'
p275
V2D2UDD8XMB3Q9K5LOELTR6T4MJVEPR
p276
sS'test_81'
p277
V2P3Z6R70G5R9EOE4G357ZSSTS759P5
p278
sS'rating_variations_12'
p279
V2FILWSBRI8IUHD4FMGAHVTLBB942ET
p280
sS'test_83'
p281
V2VHZ2MIKMN9UE0FJGGKWZXI3X3R9QW
p282
sS'proposer_chooses_timing_45'
p283
V2FQTNKIMZSM5XKRG0TD0UGVG5XMZC1
p284
sS'proposer_chooses_timing_29'
p285
V2JYTP9RA7S5WZ6GXWXFFC0JNJZ9SXO
p286
sS'guarantee_anonymous_1'
p287
V2G4AZHHRRLFQ6ZT88Z81NHO9MZ2NE2
p288
sS'test_updown'
p289
V2FILWSBRI8IUHD4FMGAHVTLB8UX2EP
p290
sS'all_conditions1_29'
p291
V24192NJKM05BSUZFU6N2JTP9ZY9AFO
p292
sS'proposer_chooses_timing_4'
p293
V2Y7CGJ2D21O39A75YOGPXI2L0TP6CH
p294
sS'test_no_args3'
p295
V2RJQP6AUC26DMHDYE5UV3FK0HX3928
p296
sS'test_no_args2'
p297
V2C73TVOK5UFJBC4S3MFZIYQS6LB74Q
p298
sS'amk_testafgra'
p299
V2FK4E6AUBXHWYSD0YH0VEZWDVFEX11
p300
sS'test_38'
p301
V24ZMVHVKCJ017V8SHRY9NQW66HG755
p302
sS'proposer_chooses_timing_1'
p303
V2UZJHP4BDDKGH3IFQ20X8G369BBZ69
p304
sS'proposer_chooses_timing_2'
p305
V2P7JWKUDD8XMO80R74RBBUTP884BMP
p306
sS'proposer_chooses_timing_3'
p307
V2XVHDM25L8I9046UFJQ6TE4RYMTGQY
p308
sS'another_test'
p309
V22H6R70G5R98JJPO8MYWVSTN243AQ7
p310
sS'proposer_chooses_timing_5'
p311
V215QY2RCJK63C0ORFWRKZIARBYLU5Z
p312
sS'proposer_chooses_timing_6'
p313
V2IQN46UXFCD4I2M2RS4SSTKJPHSSUW
p314
sS'proposer_chooses_timing_7'
p315
V2VG5COW0LGRZGDMFDQ360NU0YRQY7D
p316
sS'proposer_chooses_timing_38'
p317
V2JSC9KSSZVXXFVETSZBQTYGOKB13LO
p318
sS'proposer_chooses_timing_39'
p319
V28AQV66RLPHI68RJUFMKN62OL526EA
p320
sS'proposer_chooses_timing_34'
p321
V2J9CJK63ZVE3UWA8SN1QEJL6THEY9P
p322
sS'proposer_chooses_timing_35'
p323
V27C8Y1THV8ERM3IHLP9M4SM6MUH0NS
p324
sS'proposer_chooses_timing_36'
p325
V2LHMAZHHRRLF35YBL0IH6KHPBTGMD7
p326
sS'proposer_chooses_timing_37'
p327
V2C4EC1PC6SK94OITM49ZJHMBC4M0O7
p328
sS'proposer_chooses_timing_30'
p329
V2WW4EGDHDM25YDSXL4N6MEZ7QT4MC7
p330
sS'proposer_chooses_timing_31'
p331
V248Y2RCJK63Z8JD5P5BUNAQALZ4V62
p332
sS'proposer_chooses_timing_32'
p333
V2V6ZFYQS1CSTZTPLPIJ4NC1F0RMKNF
p334
sS'proposer_chooses_timing_33'
p335
V2PWBDPGFL6VC219XPS4WNOV2UMSJ4N
p336
sS'test_cycle_10'
p337
V2LHMAZHHRRLFWBU803IH4KHOEOGDM3
p338
sS'rating_variations_14'
p339
V24VWIOV1S7SN9OZ179UYGZ8NGFZKZ3
p340
sS'proposer_chooses_timing_19'
p341
V2ZCB2YU98JHS6QLRJ56BO9IPDYEBNP
p342
sS'rating_variations_15'
p343
V2SVDP8PJWKUDJJ37OBH3CZ0BEIXI7Y
p344
sS'rating_variations_16'
p345
V22H6R70G5R98JJPO8MYWVSTN60KQA0
p346
sS'all_conditions1_23'
p347
V21MF0OHOVR14O8Q9FT02KECWIUZ54P
p348
sS'test_31'
p349
V2PWR9Y8TNKIM53SQXN8S5OM0UPNV8M
p350
sS'test_30'
p351
V2NAK9RJ85OZI5PN7NIGMROQ5J5HV7Z
p352
sS'test_33'
p353
V2E2NQY2RCJK69A1ZGPI0NUIAVIC4T9
p354
sS'test_32'
p355
V2XANTL0XULRGT4H4GUDD05FPCWZ2OP
p356
sS'test_35'
p357
V2B3RGNTBJ3MMJ8B02FE65KHBEV5V9B
p358
sS'test_34'
p359
V29D7WGKCCVLL9NGOGU8ASQ4CEWJ4U0
p360
sS'test_37'
p361
V2PG1THV8ER9YE4T5VUQSP5KFM1V2P6
p362
sS'test_36'
p363
V2DKDIPDOBDDPE0PHX24DBXMB8ZW0BZ
p364
sS'test_39'
p365
V2K9Y0LWSBRI8O5HNB208MHSTQKW0C6
p366
sS'test_80'
p367
V2V9ILKH1Q6SVWJNTLUHU9L5OG450JK
p368
sS'rating_variations_9'
p369
V2TK6DG67D1X31BL5DKFK5JE1UVS9G8
p370
sS'rating_variations_11'
p371
V2F55F3Q0JG5T4XTX9624CF9S0GLDHT
p372
sS'all_conditions1_80'
p373
V248Q7Q67051QQNTCEAKQF1XMO61XD3
p374
sS'all_conditions1_81'
p375
V236FXRDS4IC1K9J8AR6M41A2QJ0VY7
p376
sS'all_conditions1_82'
p377
V2XCLF395SW6NMCLDGVPNMBYF930SEJ
p378
sS'second_experiment'
p379
V2P4Z9O9Z6KW45XGKUPIROFQ0SFA3CZ
p380
sS'rating_variations_18'
p381
V2J1ENLVWJ5OPHB4GT7ZYPWB7MDDT1T
p382
sS'test_82'
p383
V29E1VP9746OQ73TB3FH6A051VT50KJ
p384
sS'all_conditions1_86'
p385
V227HIT3HVWAVQTCN0RH2472ZHXSLD6
p386
sS'all_conditions1_87'
p387
V2PQMQU6L5OBVIT7CA5VALJF7OI2XEW
p388
sS'all_conditions1_88'
p389
V2XCLF395SW6NMCLDGVPNMBYF930ES5
p390
sS'test_3'
p391
V2G1MJUNU8LZ6XI61IZ08G8J30N02IU
p392
sS'test_why_leave_collective_gain'
p393
V21UJ011K274JDKQB9ES8Q46U2OWBDU
p394
sS'rating_variations_13'
p395
V27ZM8JIA0RYNPK88WSD08BMJ1IL056
p396
sS'all_conditions1_85'
p397
V2BGT3DHJHP4BJOQ1H6ZRVX9XB44V2P
p398
sS'proposer_chooses_timing_23'
p399
V2CPWGKCCVLL3PFDRKM1PV4CAP4TV5M
p400
sS'proposer_chooses_timing_22'
p401
V2NSUC26DG67DE2DJYKB0HOK3LT16DH
p402
sS'proposer_chooses_timing_21'
p403
V28185OZIZEHMNFZAMTH5JWPYNCMZBU
p404
sS'proposer_chooses_timing_20'
p405
V28UJK63ZVE3H45UIGFH9OL5S5U1ZAZ
p406
sS'proposer_chooses_timing_27'
p407
V2P7JWKUDD8XMO80R74RBBUTP884MB0
p408
sS'proposer_chooses_timing_26'
p409
V204JUNU8LZ6RK5QTPEZDDJ3WGMWJ32
p410
sS'all_conditions1_19'
p411
V2SM9F9SSSHX17UU851WH8F8JCCQUYG
p412
sS'proposer_chooses_timing_24'
p413
V2TOSK9RJ85OZV4O5KF1PROOR7TWU6F
p414
sS'test_conds'
p415
V2FNPQJQ9OPLL3NDFZZOGBKCO4Q2Z1D
p416
sS'all_conditions1_16'
p417
V29DQ8H88MQU6RGUW8K91UXX4I6KS99
p418
sS'all_conditions1_15'
p419
V2KGOCCF0CP5K30Z30Q9X1G4PUVPVU9
p420
sS'all_conditions1_14'
p421
V28RY8TNKIMZSSGQ0U0TOP0PG334XA1
p422
sS'all_conditions1_13'
p423
V2CUNHMVHVKCJ6C75FFVJA9KQ4U3534
p424
sS'all_conditions1_12'
p425
V2WGQS1CSTMOF32JDHQ31HYDN57HNQF
p426
sS'all_conditions1_11'
p427
V27E618N46UXFIOAQAK5TQDSN18JPRD
p428
sS'all_conditions1_10'
p429
V2XE40SPW1INMNR4BHRUNDB6BNAH2F9
p430
sS'rating_variations_19'
p431
V2ACHYW2GTP9RGIYQ9US6CYSONV4NS6
p432
sS'rating_variations_39'
p433
V21ICOK2JE1M7VVQUYZN6RZAC8SPNUM
p434
sS'guarantee_feedback_shown_1'
p435
V2Y0T3HVWAVKICDT43AS75Z99Y0HNFK
p436
sS'proposer_chooses_timing_14'
p437
V2929RJ85OZIZRMWY8UDOTQ5FY4X8WE
p438
sS'new_schema'
p439
V2JYMMEGOOGQSIXC3NITSHIUUYUICC5
p440
sS'all_conditions1_89'
p441
V2ELV0FK0COK2PP77KXBKCLRWEC1IP3
p442
sS'rating_variations_32'
p443
V2TX806UFBNFS1R06SB05VW6NOPJ2GA
p444
sS'rating_variations_33'
p445
V2EXB0HFL42J1R9BTOFT7P0IGN8LL0F
p446
sS'rating_variations_30'
p447
V2DS6X3YOCCF0I0B5AXKIQIIX647RQ8
p448
sS'rating_variations_31'
p449
V2OV1X3V0FK0CUV84R9D7SKK9TF0FMF
p450
sS'rating_variations_36'
p451
V26E1INMHGYQ4PETVOE2FPFFO6MLK7A
p452
sS'rating_variations_37'
p453
V29DGULF395SWCYMMS0UN1NJB635QC2
p454
sS'rating_variations_34'
p455
V2UHKPFE4EGDHJX8QYG99QZW6P23I8L
p456
sS'rating_variations_35'
p457
V217FE4EGDHDM8GRTVHEZZ6HE7USAKS
p458
sS'all_conditions1_49'
p459
V2P4QU6L5OBVCOCXIAC1IMF7G2PCFY3
p460
sS'all_conditions1_47'
p461
V2LX0OHOVR14I3VUNYHTHHCWAEL556A
p462
sS'all_conditions1_24'
p463
V2V0UUU00OQKKGFO35GJ2X26882YVVY
p464
sS'test_29'
p465
V2SIHFL42J1LYBJHSFFD0LGFKMMU2NA
p466
sS'test_26'
p467
V2C73TVOK5UFJBC4S3MFZIYQS6LL740
p468
sS'test_27'
p469
V2DDOX7H57DZKVQKPRO4HGM25QHB0A4
p470
sS'test_24'
p471
V2NFBAT2D5NQYTGLO38AG8TYMSLP73F
p472
sS'test_neg2..2'
p473
V2YXL42J1LY58HI8SZ89GIKHD6FUP4S
p474
sS'test_22'
p475
V2Z3KH1Q6SVQ8NJE732XL8OBVHRU2L8
p476
sS'aah'
p477
V28J4IXKO2L92NPIHNEO31OCCJUUCD5
p478
sS'test_20'
p479
V2G2PFE4EGDHDSDB6LQ0N2W6HJ8Z9J5
p480
sS'test_21'
p481
V23QJIA0RYNJ98YP5Z8WBPJTUM7P724
p482
sS'test_class_demo_mar27'
p483
V2C79746OQ1SNW1DBJFR54QKCS1CN3Q
p484
sS'all_conditions1_96'
p485
V2MQB727M0IGFQSJMJ66SYF4VQCWYDB
p486
sS'all_conditions1_95'
p487
V27DJ8EBDPGFLC6IA970RQDWIWJ3G15
p488
sS'all_conditions1_94'
p489
V2BFFCD45XCETTOY86S9N6TGPCOBZX4
p490
sS'all_conditions1_93'
p491
V2IDP9746OQ1ST1WS3EY081QKKBT2MG
p492
sS'all_conditions1_42'
p493
V2JGU98JHSTLB9W60OR0IRBJERFFEQG
p494
sS'all_conditions1_91'
p495
V2TEA6X3YOCCF6NVQX5GTLNII5MIQPE
p496
sS'all_conditions1_90'
p497
V2F84J3NAB6BFSQL9B69T4TJFL4FSF1
p498
sS'all_conditions1_43'
p499
V2FN8B727M0IGLVNYEEPFVVF436PXC3
p500
sS'proposer_chooses_timing_28'
p501
V2CQER9Y8TNKIZ42A3P6HX2ON24GU7E
p502
sS'test_92'
p503
V2JV5NQYN5F3Q6UMQ66DNFWYB9I8C85
p504
sS'proposer_chooses_timing_11'
p505
V2N633FDEY5CO95V4P4U8HRFMELW1S9
p506
sS'proposer_chooses_timing_50'
p507
V26ZIT3HVWAVKVBCBHVT1C2ZAB5HME0
p508
sS'test_23'
p509
V2U78PJWKUDD83XHO3B0Z3B6UYXZ9K4
p510
sS'rating_variations_29'
p511
V2KLFDEY5COW0RRXKGG3RILC63BXU3C
p512
sS'all_conditions1_83'
p513
V2581SNQQ7Q676G7BXKER42TQKPZT90
p514
sS'rating_variations_28'
p515
V2JJO3W5XH0JPV3ONX65POSP7D8PDJY
p516
sS'blah'
p517
V2BU26DG67D1X9660X83ON2JE5EU8F7
p518
sS'all_conditions1_76'
p519
V24C8LZ6R70G5XKEYLRUVH7WS0HP7N1
p520
sS'all_conditions1_78'
p521
V2PW4BLYHVI44U385Y2ZDQEZSJYQV18
p522
sS'all_conditions1_6'
p523
V2O8EOZFYQS1CY4S9S5IDV4IC920IL5
p524
sS'all_conditions1_5'
p525
V2Q2QW618N46U3QIYHDOCHTND0BVNPO
p526
sS'proposer_chooses_timing_44'
p527
V2CYULF395SW60LB3Q8EYSJBZHGFRD0
p528
sS'experiment_1'
p529
V2I63W5XH0JPPYT85BMGLVP75SV1KEG
p530
sS'test_59'
p531
V243VWJ5OPB0Y1R5TBUNBAEP9ZCU4WZ
p532
sS'test_94'
p533
V2525UFJ51Y7QKZ50BYJ1FSTMTOQC9U
p534
sS'proposer_chooses_timing_25'
p535
V2DGB49F9SSSHA6B7MSJTAH5GAX3SWV
p536
sS'proposer_chooses_timing_9'
p537
V2E924SMEZZ2MVPWB7ZZPEY39VBW3KL
p538
sS'test_53'
p539
V23DHVKCJ011K8IA4KHBQZ618SDZ79W
p540
sS'all_conditions1_3'
p541
V2A4OFXRDS4IC7P4Y05AFP11AA6WUXA
p542
sS'test_51'
p543
V2H6HOVR14IXKUDRUFP5CZA6X87H787
p544
sS'test_50'
p545
V29UGW40SPW1ITXN1BYVJ6NABBK80D6
p546
sS'test_57'
p547
V2JVIPDOBDDP8VU257L480MB3VC2C1L
p548
sS'test_56'
p549
V2XXL6VCPWZ9RTO2313SSASN3I299OO
p550
sS'test_55'
p551
V25L3FDEY5COW6WMCCBZCUFLCB4G2TB
p552
sS'test_54'
p553
V2S5FSVGULF39B32R0OSFV3NYSS49N9
p554
sS'all_conditions1_17'
p555
V2J1E1M7PKK9LX7C9CI307LZXX99ZSW
p556
sS'all_conditions1_68'
p557
V2QH6KW4ZMAZHN2X6SYROQNVRPPLH8O
p558
sS'all_conditions1_69'
p559
V25XXRDS4IC1E4OTIWND14A2I3M5ZWB
p560
sS'all_conditions1_1'
p561
V2DABRI8IUB2Y0KE4U0KLE3L0NZKH5M
p562
sS'rating_variations_2'
p563
V25LW5XH0JPPSODQJRXCSS75KTAAFLD
p564
sS'rating_variations_3'
p565
V2MAW6NG1FS3N4YPWBNSF2SZLALVKYC
p566
sS'all_conditions1_60'
p567
V28YNTBJ3MMDXBQVS0ETKKB9MLLPBXA
p568
sS'all_conditions1_61'
p569
V2J11LY58B727SBO1SS8D46YF0JHT8B
p570
sS'rating_variations_6'
p571
V2V5LVWJ5OPB046MKL6DWE7EPHI63VA
p572
sS'all_conditions1_67'
p573
V2U7GFL6VCPWZF2TY9QFV4S7SVRF7M1
p574
sS'rating_variations_4'
p575
V2N2W4ZMAZHHRXWLBDWENYRH1S5SAJT
p576
sS'all_conditions1_65'
p577
V27A1CSTMOFXRJ3A3P95YGNXJNA2PS1
p578
sS'test_cycle_2'
p579
V27D66RLPHIT3N62V8S965NJQ7B78GK
p580
sS'test_cycle_3'
p581
V2J5JKM05BMJT0S4HFOKPCRA7XFWIDS
p582
sS'proposer_chooses_timing_47'
p583
V2BVD8XMB3Q39C5LUSYF6Y4EWU8VGRZ
p584
sS'test_cycle_1'
p585
V28UJK63ZVE3HXBQFVIH9ML5R8P1AZF
p586
sS'proposer_chooses_timing_41'
p587
V2HOUFBNFSVGUYKDX3XN6SG1GUINJ5S
p588
sS'test_cycle_7'
p589
V22GHVI44OS2KR5EY0MQSEAP5GB05Z4
p590
sS'test_cycle_4'
p591
V2DKDIPDOBDDPE0PHX24DBXMB803B0J
p592
sS'test_cycle_5'
p593
V24NF3Q0JG5TYSYIHBJV9I9SSXRXIEL
p594
sS'blah2'
p595
V2UHKPFE4EGDHJX8QYG99QZW6L6M8IY
p596
sS'test_neg2..2(2)'
p597
V2DJVP9746OQ1YYWBKYX7351QPLK1LU
p598
sS'test_cycle_8'
p599
V2F84J3NAB6BFSQL9B69T4TJFIQEFSS
p600
sS'test_cycle_9'
p601
V2UHKPFE4EGDHJX8QYG99QZW6MOZ8IC
p602
sS'proposer_chooses_timing_49'
p603
V2NAK9RJ85OZICJRA8FGMTOQ6GAOV71
p604
sS'proposer_chooses_timing_48'
p605
V2C79746OQ1SN3VHE4CR56QKDP613NQ
p606
sS'all_conditions1_62'
p607
V2OVZKPFE4EGDNOSNITZICNZWE5FH71
p608
sS'rating_variations_8'
p609
V2P3Z6R70G5R9EOE4G357ZSSTVMFP9S
p610
sS'test_normal'
p611
V2KXDEY5COW0LM25OLKIFOC6VS3W4VT
p612
sS'test_58'
p613
V2UCCF806UFBNL3117T63C5SWBW90EZ
p614
sS'rating_variations_40'
p615
V2XCLF395SW6NMCLDGVPNMBYF932ES7
p616
sS'all_conditions1_84'
p617
V2Z3KH1Q6SVQ8NJE732XL8OBVK632LE
p618
sS'proposer_chooses_timing_8'
p619
V2D15OPB0YVGZL3WK9C5PEU324MVZ78
p620
sS'test_25'
p621
V2IDP9746OQ1ST1WS3EY081QKHWK2MA
p622
sS'test_48'
p623
V2PZ88MQU6L5OH6I3EZOX7AIJKG8VCS
p624
sS'rating_variations_24'
p625
V22OVCPWZ9RND2TUGE0YSQ3DTOI5QBV
p626
sS'rating_variations_27'
p627
V2XGQ4J3NAB6BLXL016PIW1TJN1JERJ
p628
sS'rating_variations_26'
p629
V267SI2KYEPLSVIB5YUXWM3OAPEINTV
p630
sS'rating_variations_21'
p631
V2J5JKM05BMJT0S4HFOKPCRA70T0DIM
p632
sS'rating_variations_20'
p633
V2JGU98JHSTLB9W60OR0IRBJERFHEQI
p634
sS'rating_variations_23'
p635
V2XE40SPW1INMNR4BHRUNDB6BNAJ2FB
p636
sS'rating_variations_22'
p637
V2GYKPEIB9BAWR3SI2YWV0UD3UHUX0C
p638
sS'test_40'
p639
V2VU1PC6SK9RJEGUKV75HPAAPRXH2QX
p640
sS'test_41'
p641
V2ZQIUB2YU98JN3Z6OBC0IBJ9NX49L7
p642
sS'test_42'
p643
V2KXDEY5COW0LM25OLKIFOC6VS3S4VP
p644
sS'test_43'
p645
V2I3Y58B727M0ORL5ULS61FSVKDNVAQ
p646
sS'test_44'
p647
V2I0NMHGYQ4J3TLHRONDFIOYYN2U9M9
p648
sS'rating_variations_38'
p649
V2PAV7WGKCCVLREIVGBDHDPQ4KXRT3L
p650
sS'test_46'
p651
V29UXKNQY2RCJQH9K8MUHU0KUNJJ2RY
p652
sS'test_47'
p653
V2WIOHOVR14IXQZ86MA8EFWA62CR76L
p654
sS'thank_on_bad_review_mandatory_review_experimental_validity_reason_25subjects'
p655
V27DJ8EBDPGFLC6IA970RQDWIWISG1S
p656
sS'mandatory_review_personal_gain_25subjects'
p657
V28AQV66RLPHIZENG9IMKL62NRDU6E0
p658
sS'base_case_2'
p659
V2PT727M0IGFKNO7RBNJVI4VIWAAEZ4
p660
sS'test_52'
p661
V29QSV7WGKCCVRW9XNBUMKAPQ9L22SM
p662
sS'all_conditions1_71'
p663
V2C2I62NJQ2178AFU3PXBNLCVMZWNV9
p664
sS'all_conditions1_63'
p665
V2GFR24SMEZZ2STQ70HL8S9Y3GHY2JC
p666
sS'all_conditions1_73'
p667
V2MFH0JPPSI2K4PV65XY5NLM6475IOM
p668
sS'all_conditions1_72'
p669
V235CWYB49F9SY3NIE9AOQST5PTGPTQ
p670
sS'all_conditions1_75'
p671
V2CUPWZ9RNDWIU67DK0E3GTGU9RZSDQ
p672
sS'all_conditions1_74'
p673
V2LOUXFCD45XCK4TY5VKKLN3TOD6VX1
p674
sS'all_conditions1_77'
p675
V2CO6RLPHIT3H17GGXQX2QJQ29V3H9D
p676
sS'test_review_mandatory_no'
p677
V2FNPQJQ9OPLL3NDFZZOGBKCO4UF1Z0
p678
s.