(dp0
S'test2'
p1
V2DJINMHGYQ4J9YGWJJ6MIFOY25GL8F
p2
sS'test_75'
p3
V2EWRSQV66RLPNTZOU3NAYKI67WCC4Y
p4
sS'test_74'
p5
V2AKD5NQYN5F3WBP1I1PMQCWYGD27B6
p6
sS'test_77'
p7
V26OAUC26DG67JC3O886K3COK7S7C53
p8
sS'test_76'
p9
V2VVD2AC9KSSZ183N3CWUXKQO3PG0I8
p10
sS'test_71'
p11
V2ADOK5UFJ51YD1K9CNPQV1CSYVH7AB
p12
sS'test_70'
p13
V217EIB9BAWLSS8VBI3OUG3MTW022ZR
p14
sS'test_73'
p15
V2RVZXR24SMEZ5DS3XUE9X8P93C10HF
p16
sS'test_case_hi'
p17
V2525UFJ51Y7QKZ50BYJ1FSTMTI5C9X
p18
sS'test_79'
p19
V2AOYTWX4H3H2VMAYMH7I9IJRGEY4ZP
p20
sS'test_78'
p21
V2Y7CGJ2D21O32G32DRGPVI2K3NIC6J
p22
sS'all_conditions1_68'
p23
V2QH6KW4ZMAZHN2X6SYROQNVRPPLH8O
p24
sS'thank_on_bad_review_1'
p25
V2A79RA7S5WM1CK4D1NY0MMHLI14UZ7
p26
sS'test_7'
p27
V2UZJHP4BDDKGA9EC550X6G35C546ZC
p28
sS'test_6'
p29
V2K6H1XERSQV6C2RAUQK3KVWA0TB080
p30
sS'test_5'
p31
V2CEJ5OPB0YVG5J479JYES9U36B06YL
p32
sS'test_4'
p33
V2IKA1QP6AUC2COMRKLSX6V0FP9507D
p34
sS'test_3'
p35
V2G1MJUNU8LZ6XI61IZ08G8J30N02IU
p36
sS'test_2'
p37
V2X12D21O3W5XNBPA2092NYEPQ1I9F2
p38
sS'test_1'
p39
V2UWY5COW0LGR5EEX4NCC9VNU4566XF
p40
sS'all_conditions1_44'
p41
V2F6CCF0CP5KXV4O8VQOYJ4PMFB0VW8
p42
sS'all_conditions1_45'
p43
V2GKMIKMN9U8PF99T64NXL3SU66NSBJ
p44
sS'all_conditions1_46'
p45
V25TDDP8PJWKUJOEIZJUQ69Z0JUVH62
p46
sS'mandatory_review_1_25takers'
p47
V2XXL6VCPWZ9RTO2313SSASN3I209OF
p48
sS'all_conditions1_40'
p49
V27M5UUKQOYGNO7785GFG31070JIFXX
p50
sS'all_conditions1_41'
p51
V20KD21O3W5XH6UVA5QTK1EPL0D9AGN
p52
sS'test_9'
p53
V2TK6DG67D1X31BL5DKFK5JE1RGI9G1
p54
sS'test_8'
p55
V24BL0XULRGNTHU97ZLO5IP7NBBD4QV
p56
sS'all_conditions1_53'
p57
V2N970G5R98D8PE1ZK4JSWNYCORNSCQ
p58
sS'all_conditions1_52'
p59
V2XGQ4J3NAB6BLXL016PIW1TJN1HERH
p60
sS'all_conditions1_51'
p61
V267SI2KYEPLSVIB5YUXWM3OAPEGNTT
p62
sS'all_conditions1_50'
p63
V2QAKMT6YTWX4NENN2JVDC9GIE6KV05
p64
sS'all_conditions1_57'
p65
V27PQ67051QKCT27N6Y310MGI8JGFZU
p66
sS'all_conditions1_56'
p67
V26QPJWKUDD8XSM9BGHQ0E6UTWUVLA4
p68
sS'all_conditions1_55'
p69
V24ZMVHVKCJ017V8SHRY9NQW69WP579
p70
sS'all_conditions1_54'
p71
V2BXBNFSVGULF9KBD9EEG4FS3VMP7LZ
p72
sS'all_conditions1_59'
p73
V2HNBMJTUHYW2M4VU4IYS8WM1EX0IN7
p74
sS'all_conditions1_58'
p75
V21ICOK2JE1M7VVQUYZN6RZAC8SNNUK
p76
sS'test_62'
p77
V2C8VJ8EBDPGFRH1X24Q9UNDWNXO0FH
p78
sS'test_63'
p79
V2BGT3DHJHP4BJOQ1H6ZRVX9X8PW2VR
p80
sS'test_60'
p81
V25F7H57DZKPFKFK1QP4M55L8NIGC22
p82
sS'test_61'
p83
V20WNLVWJ5OPB6911CGPMZB7EUIN2U2
p84
sS'test_66'
p85
V214T6YTWX4H3NDVWHL09JI6IO042XU
p86
sS'test_67'
p87
V2P4Z9O9Z6KW45XGKUPIROFQ0TWGC3D
p88
sS'test_64'
p89
V2VMBLYHVI44OYDQ67G4NHZSBFYY2W1
p90
sS'test_65'
p91
V28RZJMJUNU8L5HXSDOWRC8D8OCO0GG
p92
sS'test_68'
p93
V2JME6AUBXHWSNIL6MHMB2WDRQ6Y2Y0
p94
sS'test_69'
p95
V2ALDHJHP4BDDQRAJLZJXCX3G8E04XS
p96
sS'all_conditions1_63'
p97
V2GFR24SMEZZ2STQ70HL8S9Y3GHY2JC
p98
sS'name'
p99
V2KZVWAVKI62NP18MKAQ9CQH6GT4IQE
p100
sS't3'
p101
V2YDWAVKI62NJWD7SF709TH6BO8ZJRN
p102
sS'experiment_name'
p103
V2CIFK0COK2JE7XDAXS0LUW6O3XZKRN
p104
sS'test_conds3'
p105
V2JV21O3W5XH0P0VDVABYHPLSUCDBHJ
p106
sS'test_conds2'
p107
V21UJ011K274JDKQB9ES8Q46U2KKBDA
p108
sS'all_conditions1_26'
p109
V2YD8ER9Y8TNKOX5DZDBFKS2OUORT6P
p110
sS'all_conditions1_27'
p111
V218W618N46UXLNJPI53EWNDSVHMQOX
p112
sS'all_conditions1_24'
p113
V2V0UUU00OQKKGFO35GJ2X26882YVVY
p114
sS'all_conditions1_25'
p115
V2GDXX2Q45UUKWZ410QN1QS8OOO2SAO
p116
sS'all_conditions1_22'
p117
V2D2UDD8XMB3Q9K5LOELTR6T4MJTEPP
p118
sS'test_no_args'
p119
V2NFBAT2D5NQYTGLO38AG8TYMSLF735
p120
sS'all_conditions1_20'
p121
V2M5QYN5F3Q0JMGZJZV3W1B49NXUAE6
p122
sS'all_conditions1_21'
p123
V2AGMNCWYB49FF3YDU5S1MONS1TJNRG
p124
sS'test_72'
p125
V2S3YHVI44OS2QW0TQV5ZVBAPAKU4YY
p126
sS'all_conditions1_28'
p127
V2ZQIUB2YU98JN3Z6OBC0IBJ9QCDL9P
p128
sS'all_conditions1_29'
p129
V24192NJKM05BSUZFU6N2JTP9ZY9AFO
p130
sS'all_conditions1_9'
p131
V2WGQS1CSTMOF32JDHQ31HYDN57HQNI
p132
sS'all_conditions1_8'
p133
V2J5JQ2172Z99WSCWXT3VHBU1B7QZR8
p134
sS'all_conditions1_7'
p135
V2U0PDOBDDP8PP7QFQLZXPB3QBX1D29
p136
sS'test_96'
p137
V2C2CJ011K274PIF534X1BN46Z68CA9
p138
sS'test_95'
p139
V20JLY58B727M6TM0XP419YFS0OX9U1
p140
sS'all_conditions1_4'
p141
V21NUFJ51Y7QEUALJ30SCVTMONLTADD
p142
sS'test_93'
p143
V2581SNQQ7Q676G7BXKER42TQHAQ9TA
p144
sS'all_conditions1_2'
p145
V26U6SK9RJ85O5T5ZUU1ASMOOYTGT59
p146
sS'test_91'
p147
V27ZM8JIA0RYNPK88WSD08BMJY3A503
p148
sS'test_90'
p149
V2H9YNJ92NJKM6GH7W1LH1W2GYY2C7I
p150
sS'test_17'
p151
V2I7C6SK9RJ85UAOKRPDADPMOTZY4SK
p152
sS'test_16'
p153
V2UKAC9KSSZVX3DWPI2LKTOYGSRP2K5
p154
sS'test_15'
p155
V26DH8MZ9O9Z6Q7AKZIQHKRRLKZT09P
p156
sS'test_14'
p157
V2GFR24SMEZZ2STQ70HL8S9Y3D2P2J6
p158
sS'test_13'
p159
V2H6UQIHPCGJ2JD79G4WXK0JPU1B71N
p160
sS'test_12'
p161
V2CO6RLPHIT3H17GGXQX2QJQ26GV9H0
p162
sS'test_11'
p163
V2IBHV8ER9Y8TTVO7C0D5NFHS7XF4RW
p164
sS'test_10'
p165
V2IKA1QP6AUC2COMRKLSX6V0FP9570K
p166
sS'test_19'
p167
V2CPWGKCCVLL3IL9OZP1PT4C9SZMV5K
p168
sS'test_18'
p169
V2GOKW4ZMAZHHX2R038FNQVRH6TA9IT
p170
sS'3'
p171
V283PHIT3HVWA1VORFVAQ517231WCKJ
p172
sS'all_conditions1_92'
p173
V294EZZ2MIKMNF5EAM6U8WWWXQRU7OG
p174
sS'all_conditions1_35'
p175
V2C18EBDPGFL61NVHCHINGWIO3PU2H7
p176
sS'all_conditions1_34'
p177
V2FWPLSP75KLMC7PO1I8QHQVJZSNZTL
p178
sS'all_conditions1_37'
p179
V2TEY2AOO2GMMKRU9TYJCP6IAIQU55U
p180
sS'all_conditions1_36'
p181
V2A79RA7S5WM1CK4D1NY0MMHLI6UUZ7
p182
sS'all_conditions1_31'
p183
V27IJG5TYMNCW4MAUSHJSVHX197QIM7
p184
sS'all_conditions1_30'
p185
V2ACHYW2GTP9RGIYQ9US6CYSONV2NS4
p186
sS'all_conditions1_33'
p187
V2HFULRGNTBJ3SXJIING7Q62KPZBT7O
p188
sS'all_conditions1_32'
p189
V28YNTBJ3MMDXBQVS0ETKKB9MLLPXBW
p190
sS'all_conditions1_39'
p191
V2G1MJUNU8LZ6XI61IZ08G8J33292I0
p192
sS'all_conditions1_38'
p193
V2A79RA7S5WM1CK4D1NY0MMHLI6UZUC
p194
sS'test_88'
p195
V2H9YNJ92NJKM6GH7W1LH1W2GYY27CD
p196
sS'test_89'
p197
V27C8Y1THV8ERF9EE0S9M2SM5POA0NO
p198
sS'test_84'
p199
V2EXB0HFL42J1R9BTOFT7P0IGKTA0LM
p200
sS'test_85'
p201
V29HVXX2Q45UUQ1UJTV9W4NS8TPT9RX
p202
sS'test_86'
p203
V2X7GSNTL0XULXRTEORUMPDX5KY00MO
p204
sS'test_87'
p205
V29DQ8H88MQU6RGUW8K91UXX4FRC9SL
p206
sS'test_80'
p207
V2V9ILKH1Q6SVWJNTLUHU9L5OG450JK
p208
sS'test_81'
p209
V2P3Z6R70G5R9EOE4G357ZSSTS759P5
p210
sS'test_82'
p211
V29E1VP9746OQ73TB3FH6A051VT50KJ
p212
sS'test_83'
p213
V2VHZ2MIKMN9UE0FJGGKWZXI3X3R9QW
p214
sS'guarantee_anonymous_1'
p215
V2G4AZHHRRLFQ6ZT88Z81NHO9MZ2NE2
p216
sS'test_no_args3'
p217
V2RJQP6AUC26DMHDYE5UV3FK0HX3928
p218
sS'test_no_args2'
p219
V2C73TVOK5UFJBC4S3MFZIYQS6LB74Q
p220
sS'amk_testafgra'
p221
V2FK4E6AUBXHWYSD0YH0VEZWDVFEX11
p222
sS'another_test'
p223
V22H6R70G5R98JJPO8MYWVSTN243AQ7
p224
sS'all_conditions1_23'
p225
V21MF0OHOVR14O8Q9FT02KECWIUZ54P
p226
sS'test_31'
p227
V2PWR9Y8TNKIM53SQXN8S5OM0UPNV8M
p228
sS'test_30'
p229
V2NAK9RJ85OZI5PN7NIGMROQ5J5HV7Z
p230
sS'test_33'
p231
V2E2NQY2RCJK69A1ZGPI0NUIAVIC4T9
p232
sS'test_32'
p233
V2XANTL0XULRGT4H4GUDD05FPCWZ2OP
p234
sS'test_35'
p235
V2B3RGNTBJ3MMJ8B02FE65KHBEV5V9B
p236
sS'test_34'
p237
V29D7WGKCCVLL9NGOGU8ASQ4CEWJ4U0
p238
sS'test_37'
p239
V2PG1THV8ER9YE4T5VUQSP5KFM1V2P6
p240
sS'test_36'
p241
V2DKDIPDOBDDPE0PHX24DBXMB8ZW0BZ
p242
sS'test_39'
p243
V2K9Y0LWSBRI8O5HNB208MHSTQKW0C6
p244
sS'test_38'
p245
V24ZMVHVKCJ017V8SHRY9NQW66HG755
p246
sS'all_conditions1_80'
p247
V248Q7Q67051QQNTCEAKQF1XMO61XD3
p248
sS'all_conditions1_81'
p249
V236FXRDS4IC1K9J8AR6M41A2QJ0VY7
p250
sS'all_conditions1_82'
p251
V2XCLF395SW6NMCLDGVPNMBYF930SEJ
p252
sS'second_experiment'
p253
V2P4Z9O9Z6KW45XGKUPIROFQ0SFA3CZ
p254
sS'all_conditions1_84'
p255
V2Z3KH1Q6SVQ8NJE732XL8OBVK632LE
p256
sS'all_conditions1_85'
p257
V2BGT3DHJHP4BJOQ1H6ZRVX9XB44V2P
p258
sS'all_conditions1_86'
p259
V227HIT3HVWAVQTCN0RH2472ZHXSLD6
p260
sS'all_conditions1_87'
p261
V2PQMQU6L5OBVIT7CA5VALJF7OI2XEW
p262
sS'all_conditions1_88'
p263
V2XCLF395SW6NMCLDGVPNMBYF930ES5
p264
sS'all_conditions1_48'
p265
V2LRF9SSSHX11PZTD6D85I8J4WD3ZV1
p266
sS'test_why_leave_collective_gain'
p267
V21UJ011K274JDKQB9ES8Q46U2OWBDU
p268
sS'all_conditions1_49'
p269
V2P4QU6L5OBVCOCXIAC1IMF7G2PCFY3
p270
sS'all_conditions1_19'
p271
V2SM9F9SSSHX17UU851WH8F8JCCQUYG
p272
sS'all_conditions1_18'
p273
V2TX806UFBNFS1R06SB05VW6NOPH2G8
p274
sS'test_conds'
p275
V2FNPQJQ9OPLL3NDFZZOGBKCO4Q2Z1D
p276
sS'all_conditions1_16'
p277
V29DQ8H88MQU6RGUW8K91UXX4I6KS99
p278
sS'all_conditions1_15'
p279
V2KGOCCF0CP5K30Z30Q9X1G4PUVPVU9
p280
sS'all_conditions1_14'
p281
V28RY8TNKIMZSSGQ0U0TOP0PG334XA1
p282
sS'all_conditions1_13'
p283
V2CUNHMVHVKCJ6C75FFVJA9KQ4U3534
p284
sS'all_conditions1_12'
p285
V2WGQS1CSTMOF32JDHQ31HYDN57HNQF
p286
sS'all_conditions1_11'
p287
V27E618N46UXFIOAQAK5TQDSN18JPRD
p288
sS'all_conditions1_10'
p289
V2XE40SPW1INMNR4BHRUNDB6BNAH2F9
p290
sS'guarantee_feedback_shown_1'
p291
V2Y0T3HVWAVKICDT43AS75Z99Y0HNFK
p292
sS'new_schema'
p293
V2JYMMEGOOGQSIXC3NITSHIUUYUICC5
p294
sS'all_conditions1_89'
p295
V2ELV0FK0COK2PP77KXBKCLRWEC1IP3
p296
sS'all_conditions1_47'
p297
V2LX0OHOVR14I3VUNYHTHHCWAEL556A
p298
sS'test_28'
p299
V248Y2RCJK63Z1P9248BULAQ9OUXV60
p300
sS'test_29'
p301
V2SIHFL42J1LYBJHSFFD0LGFKMMU2NA
p302
sS'test_26'
p303
V2C73TVOK5UFJBC4S3MFZIYQS6LL740
p304
sS'test_27'
p305
V2DDOX7H57DZKVQKPRO4HGM25QHB0A4
p306
sS'test_24'
p307
V2NFBAT2D5NQYTGLO38AG8TYMSLP73F
p308
sS'test_25'
p309
V2IDP9746OQ1ST1WS3EY081QKHWK2MA
p310
sS'test_22'
p311
V2Z3KH1Q6SVQ8NJE732XL8OBVHRU2L8
p312
sS'aah'
p313
V28J4IXKO2L92NPIHNEO31OCCJUUCD5
p314
sS'test_20'
p315
V2G2PFE4EGDHDSDB6LQ0N2W6HJ8Z9J5
p316
sS'test_21'
p317
V23QJIA0RYNJ98YP5Z8WBPJTUM7P724
p318
sS'all_conditions1_96'
p319
V2MQB727M0IGFQSJMJ66SYF4VQCWYDB
p320
sS'all_conditions1_95'
p321
V27DJ8EBDPGFLC6IA970RQDWIWJ3G15
p322
sS'all_conditions1_94'
p323
V2BFFCD45XCETTOY86S9N6TGPCOBZX4
p324
sS'all_conditions1_93'
p325
V2IDP9746OQ1ST1WS3EY081QKKBT2MG
p326
sS'all_conditions1_42'
p327
V2JGU98JHSTLB9W60OR0IRBJERFFEQG
p328
sS'all_conditions1_91'
p329
V2TEA6X3YOCCF6NVQX5GTLNII5MIQPE
p330
sS'all_conditions1_90'
p331
V2F84J3NAB6BFSQL9B69T4TJFL4FSF1
p332
sS'all_conditions1_43'
p333
V2FN8B727M0IGLVNYEEPFVVF436PXC3
p334
sS'test_92'
p335
V2JV5NQYN5F3Q6UMQ66DNFWYB9I8C85
p336
sS'test_23'
p337
V2U78PJWKUDD83XHO3B0Z3B6UYXZ9K4
p338
sS'blah'
p339
V2BU26DG67D1X9660X83ON2JE5EU8F7
p340
sS'all_conditions1_6'
p341
V2O8EOZFYQS1CY4S9S5IDV4IC920IL5
p342
sS'all_conditions1_5'
p343
V2Q2QW618N46U3QIYHDOCHTND0BVNPO
p344
sS'experiment_1'
p345
V2I63W5XH0JPPYT85BMGLVP75SV1KEG
p346
sS'test_59'
p347
V243VWJ5OPB0Y1R5TBUNBAEP9ZCU4WZ
p348
sS'test_94'
p349
V2525UFJ51Y7QKZ50BYJ1FSTMTOQC9U
p350
sS'all_conditions1_78'
p351
V2PW4BLYHVI44U385Y2ZDQEZSJYQV18
p352
sS'test_53'
p353
V23DHVKCJ011K8IA4KHBQZ618SDZ79W
p354
sS'all_conditions1_3'
p355
V2A4OFXRDS4IC7P4Y05AFP11AA6WUXA
p356
sS'test_51'
p357
V2H6HOVR14IXKUDRUFP5CZA6X87H787
p358
sS'test_50'
p359
V29UGW40SPW1ITXN1BYVJ6NABBK80D6
p360
sS'test_57'
p361
V2JVIPDOBDDP8VU257L480MB3VC2C1L
p362
sS'test_56'
p363
V2XXL6VCPWZ9RTO2313SSASN3I299OO
p364
sS'test_55'
p365
V25L3FDEY5COW6WMCCBZCUFLCB4G2TB
p366
sS'test_54'
p367
V2S5FSVGULF39B32R0OSFV3NYSS49N9
p368
sS'all_conditions1_17'
p369
V2J1E1M7PKK9LX7C9CI307LZXX99ZSW
p370
sS'test_review_mandatory_yes'
p371
V23WZZ2MIKMN90JVUBBZTZWXI81E8P6
p372
sS'all_conditions1_69'
p373
V25XXRDS4IC1E4OTIWND14A2I3M5ZWB
p374
sS'all_conditions1_1'
p375
V2DABRI8IUB2Y0KE4U0KLE3L0NZKH5M
p376
sS'test'
p377
V2PW4BLYHVI44U385Y2ZDQEZSFY01VK
p378
sS'all_conditions1_83'
p379
V2581SNQQ7Q676G7BXKER42TQKPZT90
p380
sS'all_conditions1_60'
p381
V28YNTBJ3MMDXBQVS0ETKKB9MLLPBXA
p382
sS'all_conditions1_61'
p383
V2J11LY58B727SBO1SS8D46YF0JHT8B
p384
sS'all_conditions1_66'
p385
V2EPH57DZKPFEAPMYULD28L8IHB1D3K
p386
sS'all_conditions1_67'
p387
V2U7GFL6VCPWZF2TY9QFV4S7SVRF7M1
p388
sS'all_conditions1_64'
p389
V26XE4EGDHDM2BWE3MVQW9HEZECGLBZ
p390
sS'all_conditions1_65'
p391
V27A1CSTMOFXRJ3A3P95YGNXJNA2PS1
p392
sS'blah2'
p393
V2UHKPFE4EGDHJX8QYG99QZW6L6M8IY
p394
sS'all_conditions1_62'
p395
V2OVZKPFE4EGDNOSNITZICNZWE5FH71
p396
sS'test_58'
p397
V2UCCF806UFBNL3117T63C5SWBW90EZ
p398
sS'all_conditions1_76'
p399
V24C8LZ6R70G5XKEYLRUVH7WS0HP7N1
p400
sS'thank_on_bad_review_mandatory_review_experimental_validity_reason_25subjects'
p401
V27DJ8EBDPGFLC6IA970RQDWIWISG1S
p402
sS'test_48'
p403
V2PZ88MQU6L5OH6I3EZOX7AIJKG8VCS
p404
sS'test_49'
p405
V2FKAOO2GMMEGUZMB5KD6LAA2XNB77K
p406
sS'test_40'
p407
V2VU1PC6SK9RJEGUKV75HPAAPRXH2QX
p408
sS'test_41'
p409
V2ZQIUB2YU98JN3Z6OBC0IBJ9NX49L7
p410
sS'test_42'
p411
V2KXDEY5COW0LM25OLKIFOC6VS3S4VP
p412
sS'test_43'
p413
V2I3Y58B727M0ORL5ULS61FSVKDNVAQ
p414
sS'test_44'
p415
V2I0NMHGYQ4J3TLHRONDFIOYYN2U9M9
p416
sS'test_45'
p417
V2IANQQ7Q670571QX0ZS2WQC12V8VBL
p418
sS'test_46'
p419
V29UXKNQY2RCJQH9K8MUHU0KUNJJ2RY
p420
sS'test_47'
p421
V2WIOHOVR14IXQZ86MA8EFWA62CR76L
p422
sS'all_conditions1_79'
p423
V28RZJMJUNU8L5HXSDOWRC8D8RRXG02
p424
sS'mandatory_review_personal_gain_25subjects'
p425
V28AQV66RLPHIZENG9IMKL62NRDU6E0
p426
sS'base_case_2'
p427
V2PT727M0IGFKNO7RBNJVI4VIWAAEZ4
p428
sS'test_52'
p429
V29QSV7WGKCCVRW9XNBUMKAPQ9L22SM
p430
sS'all_conditions1_71'
p431
V2C2I62NJQ2178AFU3PXBNLCVMZWNV9
p432
sS'all_conditions1_70'
p433
V2DMZMAZHHRRLL1690VMRK1KHWXGLC6
p434
sS'all_conditions1_73'
p435
V2MFH0JPPSI2K4PV65XY5NLM6475IOM
p436
sS'all_conditions1_72'
p437
V235CWYB49F9SY3NIE9AOQST5PTGPTQ
p438
sS'all_conditions1_75'
p439
V2CUPWZ9RNDWIU67DK0E3GTGU9RZSDQ
p440
sS'all_conditions1_74'
p441
V2LOUXFCD45XCK4TY5VKKLN3TOD6VX1
p442
sS'all_conditions1_77'
p443
V2CO6RLPHIT3H17GGXQX2QJQ29V3H9D
p444
sS'test_review_mandatory_no'
p445
V2FNPQJQ9OPLL3NDFZZOGBKCO4UF1Z0
p446
s.