(dp0
S'test2'
p1
V2DJINMHGYQ4J9YGWJJ6MIFOY25GL8F
p2
sS'test_neg1..3'
p3
V2U0PDOBDDP8PP7QFQLZXPB3Q8IW2DW
p4
sS'test_75'
p5
V2EWRSQV66RLPNTZOU3NAYKI67WCC4Y
p6
sS'test_74'
p7
V2AKD5NQYN5F3WBP1I1PMQCWYGD27B6
p8
sS'test_77'
p9
V26OAUC26DG67JC3O886K3COK7S7C53
p10
sS'test_76'
p11
V2VVD2AC9KSSZ183N3CWUXKQO3PG0I8
p12
sS'test_71'
p13
V2ADOK5UFJ51YD1K9CNPQV1CSYVH7AB
p14
sS'test_70'
p15
V217EIB9BAWLSS8VBI3OUG3MTW022ZR
p16
sS'test_73'
p17
V2RVZXR24SMEZ5DS3XUE9X8P93C10HF
p18
sS'test_72'
p19
V2S3YHVI44OS2QW0TQV5ZVBAPAKU4YY
p20
sS'test_79'
p21
V2AOYTWX4H3H2VMAYMH7I9IJRGEY4ZP
p22
sS'test_78'
p23
V2Y7CGJ2D21O32G32DRGPVI2K3NIC6J
p24
sS'rating_variations_50'
p25
V2IKA1QP6AUC2COMRKLSX6V0FSOG07L
p26
sS'test_review_mandatory_yes'
p27
V23WZZ2MIKMN90JVUBBZTZWXI81E8P6
p28
sS'rating_variations_8'
p29
V2P3Z6R70G5R9EOE4G357ZSSTVMFP9S
p30
sS'thank_on_bad_review_1'
p31
V2A79RA7S5WM1CK4D1NY0MMHLI14UZ7
p32
sS'test_7'
p33
V2UZJHP4BDDKGA9EC550X6G35C546ZC
p34
sS'test_6'
p35
V2K6H1XERSQV6C2RAUQK3KVWA0TB080
p36
sS'test_5'
p37
V2CEJ5OPB0YVG5J479JYES9U36B06YL
p38
sS'test_4'
p39
V2IKA1QP6AUC2COMRKLSX6V0FP9507D
p40
sS'test_3'
p41
V2G1MJUNU8LZ6XI61IZ08G8J30N02IU
p42
sS'test_2'
p43
V2X12D21O3W5XNBPA2092NYEPQ1I9F2
p44
sS'test_1'
p45
V2UWY5COW0LGR5EEX4NCC9VNU4566XF
p46
sS'all_conditions1_44'
p47
V2F6CCF0CP5KXV4O8VQOYJ4PMFB0VW8
p48
sS'all_conditions1_45'
p49
V2GKMIKMN9U8PF99T64NXL3SU66NSBJ
p50
sS'all_conditions1_46'
p51
V25TDDP8PJWKUJOEIZJUQ69Z0JUVH62
p52
sS'mandatory_review_1_25takers'
p53
V2XXL6VCPWZ9RTO2313SSASN3I209OF
p54
sS'all_conditions1_40'
p55
V27M5UUKQOYGNO7785GFG31070JIFXX
p56
sS'all_conditions1_41'
p57
V20KD21O3W5XH6UVA5QTK1EPL0D9AGN
p58
sS'test_9'
p59
V2TK6DG67D1X31BL5DKFK5JE1RGI9G1
p60
sS'test_8'
p61
V24BL0XULRGNTHU97ZLO5IP7NBBD4QV
p62
sS'all_conditions1_53'
p63
V2N970G5R98D8PE1ZK4JSWNYCORNSCQ
p64
sS'all_conditions1_52'
p65
V2XGQ4J3NAB6BLXL016PIW1TJN1HERH
p66
sS'all_conditions1_51'
p67
V267SI2KYEPLSVIB5YUXWM3OAPEGNTT
p68
sS'all_conditions1_50'
p69
V2QAKMT6YTWX4NENN2JVDC9GIE6KV05
p70
sS'all_conditions1_57'
p71
V27PQ67051QKCT27N6Y310MGI8JGFZU
p72
sS'all_conditions1_56'
p73
V26QPJWKUDD8XSM9BGHQ0E6UTWUVLA4
p74
sS'all_conditions1_55'
p75
V24ZMVHVKCJ017V8SHRY9NQW69WP579
p76
sS'all_conditions1_54'
p77
V2BXBNFSVGULF9KBD9EEG4FS3VMP7LZ
p78
sS'all_conditions1_59'
p79
V2HNBMJTUHYW2M4VU4IYS8WM1EX0IN7
p80
sS'all_conditions1_58'
p81
V21ICOK2JE1M7VVQUYZN6RZAC8SNNUK
p82
sS'test_62'
p83
V2C8VJ8EBDPGFRH1X24Q9UNDWNXO0FH
p84
sS'test_63'
p85
V2BGT3DHJHP4BJOQ1H6ZRVX9X8PW2VR
p86
sS'test_60'
p87
V25F7H57DZKPFKFK1QP4M55L8NIGC22
p88
sS'test_61'
p89
V20WNLVWJ5OPB6911CGPMZB7EUIN2U2
p90
sS'test_66'
p91
V214T6YTWX4H3NDVWHL09JI6IO042XU
p92
sS'test_67'
p93
V2P4Z9O9Z6KW45XGKUPIROFQ0TWGC3D
p94
sS'test_64'
p95
V2VMBLYHVI44OYDQ67G4NHZSBFYY2W1
p96
sS'test_65'
p97
V28RZJMJUNU8L5HXSDOWRC8D8OCO0GG
p98
sS'test_68'
p99
V2JME6AUBXHWSNIL6MHMB2WDRQ6Y2Y0
p100
sS'test_69'
p101
V2ALDHJHP4BDDQRAJLZJXCX3G8E04XS
p102
sS'rating_variations_46'
p103
V26QPJWKUDD8XSM9BGHQ0E6UTWUXALV
p104
sS'rating_variations_43'
p105
V25CQIHPCGJ2D8CUO9DOH3JPP066820
p106
sS'rating_variations_42'
p107
V2FK4E6AUBXHWYSD0YH0VEZWDZ90X1F
p108
sS'rating_variations_41'
p109
V2ZIOUQIHPCGJ8O8M1BN50H0JXDW06M
p110
sS'rating_variations_1'
p111
V207PSI2KYEPLY0DQXTD6ZJ3OI5TMS4
p112
sS'rating_variations_47'
p113
V2WAVGULF395S2HT1ENJ3QYNJJMIPB2
p114
sS'name'
p115
V2KZVWAVKI62NP18MKAQ9CQH6GT4IQE
p116
sS'rating_variations_45'
p117
V2DJVP9746OQ1YYWBKYX7351QS0RL1I
p118
sS'rating_variations_44'
p119
V2C18EBDPGFL61NVHCHINGWIO3PW2H9
p120
sS'all_conditions1_66'
p121
V2EPH57DZKPFEAPMYULD28L8IHB1D3K
p122
sS'rating_variations_49'
p123
V2C2I62NJQ2178AFU3PXBNLCVMZYNVB
p124
sS'rating_variations_48'
p125
V2E2NQY2RCJK69A1ZGPI0NUIAYXNT46
p126
sS't3'
p127
V2YDWAVKI62NJWD7SF709TH6BO8ZJRN
p128
sS'rating_variations_7'
p129
V2VHZ2MIKMN9UE0FJGGKWZXI30I2Q9L
p130
sS'experiment_name'
p131
V2CIFK0COK2JE7XDAXS0LUW6O3XZKRN
p132
sS'all_conditions1_64'
p133
V26XE4EGDHDM2BWE3MVQW9HEZECGLBZ
p134
sS'rating_variations_5'
p135
V29TRI8IUB2YUFJP251CB6L0FJ7DI6Z
p136
sS'test_conds3'
p137
V2JV21O3W5XH0P0VDVABYHPLSUCDBHJ
p138
sS'test_conds2'
p139
V21UJ011K274JDKQB9ES8Q46U2KKBDA
p140
sS'all_conditions1_26'
p141
V2YD8ER9Y8TNKOX5DZDBFKS2OUORT6P
p142
sS'all_conditions1_27'
p143
V218W618N46UXLNJPI53EWNDSVHMQOX
p144
sS'all_conditions1_24'
p145
V2V0UUU00OQKKGFO35GJ2X26882YVVY
p146
sS'all_conditions1_25'
p147
V2GDXX2Q45UUKWZ410QN1QS8OOO2SAO
p148
sS'all_conditions1_22'
p149
V2D2UDD8XMB3Q9K5LOELTR6T4MJTEPP
p150
sS'test_no_args'
p151
V2NFBAT2D5NQYTGLO38AG8TYMSLF735
p152
sS'all_conditions1_20'
p153
V2M5QYN5F3Q0JMGZJZV3W1B49NXUAE6
p154
sS'all_conditions1_21'
p155
V2AGMNCWYB49FF3YDU5S1MONS1TJNRG
p156
sS'test_case_hi'
p157
V2525UFJ51Y7QKZ50BYJ1FSTMTI5C9X
p158
sS'all_conditions1_28'
p159
V2ZQIUB2YU98JN3Z6OBC0IBJ9QCDL9P
p160
sS'all_conditions1_29'
p161
V24192NJKM05BSUZFU6N2JTP9ZY9AFO
p162
sS'all_conditions1_9'
p163
V2WGQS1CSTMOF32JDHQ31HYDN57HQNI
p164
sS'all_conditions1_8'
p165
V2J5JQ2172Z99WSCWXT3VHBU1B7QZR8
p166
sS'all_conditions1_7'
p167
V2U0PDOBDDP8PP7QFQLZXPB3QBX1D29
p168
sS'test_96'
p169
V2C2CJ011K274PIF534X1BN46Z68CA9
p170
sS'test_95'
p171
V20JLY58B727M6TM0XP419YFS0OX9U1
p172
sS'all_conditions1_4'
p173
V21NUFJ51Y7QEUALJ30SCVTMONLTADD
p174
sS'test_93'
p175
V2581SNQQ7Q676G7BXKER42TQHAQ9TA
p176
sS'all_conditions1_2'
p177
V26U6SK9RJ85O5T5ZUU1ASMOOYTGT59
p178
sS'test_91'
p179
V27ZM8JIA0RYNPK88WSD08BMJY3A503
p180
sS'test_90'
p181
V2H9YNJ92NJKM6GH7W1LH1W2GYY2C7I
p182
sS'test_17'
p183
V2I7C6SK9RJ85UAOKRPDADPMOTZY4SK
p184
sS'test_16'
p185
V2UKAC9KSSZVX3DWPI2LKTOYGSRP2K5
p186
sS'test_15'
p187
V26DH8MZ9O9Z6Q7AKZIQHKRRLKZT09P
p188
sS'test_14'
p189
V2GFR24SMEZZ2STQ70HL8S9Y3D2P2J6
p190
sS'test_13'
p191
V2H6UQIHPCGJ2JD79G4WXK0JPU1B71N
p192
sS'test_12'
p193
V2CO6RLPHIT3H17GGXQX2QJQ26GV9H0
p194
sS'test_11'
p195
V2IBHV8ER9Y8TTVO7C0D5NFHS7XF4RW
p196
sS'test_10'
p197
V2IKA1QP6AUC2COMRKLSX6V0FP9570K
p198
sS'test_19'
p199
V2CPWGKCCVLL3IL9OZP1PT4C9SZMV5K
p200
sS'test_18'
p201
V2GOKW4ZMAZHHX2R038FNQVRH6TA9IT
p202
sS'3'
p203
V283PHIT3HVWA1VORFVAQ517231WCKJ
p204
sS'all_conditions1_92'
p205
V294EZZ2MIKMNF5EAM6U8WWWXQRU7OG
p206
sS'all_conditions1_35'
p207
V2C18EBDPGFL61NVHCHINGWIO3PU2H7
p208
sS'all_conditions1_34'
p209
V2FWPLSP75KLMC7PO1I8QHQVJZSNZTL
p210
sS'all_conditions1_37'
p211
V2TEY2AOO2GMMKRU9TYJCP6IAIQU55U
p212
sS'all_conditions1_36'
p213
V2A79RA7S5WM1CK4D1NY0MMHLI6UUZ7
p214
sS'all_conditions1_31'
p215
V27IJG5TYMNCW4MAUSHJSVHX197QIM7
p216
sS'all_conditions1_30'
p217
V2ACHYW2GTP9RGIYQ9US6CYSONV2NS4
p218
sS'all_conditions1_33'
p219
V2HFULRGNTBJ3SXJIING7Q62KPZBT7O
p220
sS'all_conditions1_32'
p221
V28YNTBJ3MMDXBQVS0ETKKB9MLLPXBW
p222
sS'all_conditions1_39'
p223
V2G1MJUNU8LZ6XI61IZ08G8J33292I0
p224
sS'all_conditions1_38'
p225
V2A79RA7S5WM1CK4D1NY0MMHLI6UZUC
p226
sS'test'
p227
V2PW4BLYHVI44U385Y2ZDQEZSFY01VK
p228
sS'test_88'
p229
V2H9YNJ92NJKM6GH7W1LH1W2GYY27CD
p230
sS'test_89'
p231
V27C8Y1THV8ERF9EE0S9M2SM5POA0NO
p232
sS'test_87'
p233
V29DQ8H88MQU6RGUW8K91UXX4FRC9SL
p234
sS'test_84'
p235
V2EXB0HFL42J1R9BTOFT7P0IGKTA0LM
p236
sS'test_85'
p237
V29HVXX2Q45UUQ1UJTV9W4NS8TPT9RX
p238
sS'test_86'
p239
V2X7GSNTL0XULXRTEORUMPDX5KY00MO
p240
sS'rating_variations_17'
p241
V2W36VCPWZ9RNJ7O989J7VN3D14XPA7
p242
sS'rating_variations_10'
p243
V2D2UDD8XMB3Q9K5LOELTR6T4MJVEPR
p244
sS'test_81'
p245
V2P3Z6R70G5R9EOE4G357ZSSTS759P5
p246
sS'rating_variations_12'
p247
V2FILWSBRI8IUHD4FMGAHVTLBB942ET
p248
sS'test_83'
p249
V2VHZ2MIKMN9UE0FJGGKWZXI3X3R9QW
p250
sS'guarantee_anonymous_1'
p251
V2G4AZHHRRLFQ6ZT88Z81NHO9MZ2NE2
p252
sS'test_updown'
p253
V2FILWSBRI8IUHD4FMGAHVTLB8UX2EP
p254
sS'test_no_args3'
p255
V2RJQP6AUC26DMHDYE5UV3FK0HX3928
p256
sS'test_no_args2'
p257
V2C73TVOK5UFJBC4S3MFZIYQS6LB74Q
p258
sS'amk_testafgra'
p259
V2FK4E6AUBXHWYSD0YH0VEZWDVFEX11
p260
sS'test_38'
p261
V24ZMVHVKCJ017V8SHRY9NQW66HG755
p262
sS'rating_variations_18'
p263
V2J1ENLVWJ5OPHB4GT7ZYPWB7MDDT1T
p264
sS'another_test'
p265
V22H6R70G5R98JJPO8MYWVSTN243AQ7
p266
sS'rating_variations_19'
p267
V2ACHYW2GTP9RGIYQ9US6CYSONV4NS6
p268
sS'test_cycle_10'
p269
V2LHMAZHHRRLFWBU803IH4KHOEOGDM3
p270
sS'rating_variations_14'
p271
V24VWIOV1S7SN9OZ179UYGZ8NGFZKZ3
p272
sS'rating_variations_15'
p273
V2SVDP8PJWKUDJJ37OBH3CZ0BEIXI7Y
p274
sS'rating_variations_16'
p275
V22H6R70G5R98JJPO8MYWVSTN60KQA0
p276
sS'all_conditions1_23'
p277
V21MF0OHOVR14O8Q9FT02KECWIUZ54P
p278
sS'test_31'
p279
V2PWR9Y8TNKIM53SQXN8S5OM0UPNV8M
p280
sS'test_30'
p281
V2NAK9RJ85OZI5PN7NIGMROQ5J5HV7Z
p282
sS'test_33'
p283
V2E2NQY2RCJK69A1ZGPI0NUIAVIC4T9
p284
sS'test_32'
p285
V2XANTL0XULRGT4H4GUDD05FPCWZ2OP
p286
sS'test_35'
p287
V2B3RGNTBJ3MMJ8B02FE65KHBEV5V9B
p288
sS'test_34'
p289
V29D7WGKCCVLL9NGOGU8ASQ4CEWJ4U0
p290
sS'test_37'
p291
V2PG1THV8ER9YE4T5VUQSP5KFM1V2P6
p292
sS'test_36'
p293
V2DKDIPDOBDDPE0PHX24DBXMB8ZW0BZ
p294
sS'test_39'
p295
V2K9Y0LWSBRI8O5HNB208MHSTQKW0C6
p296
sS'test_80'
p297
V2V9ILKH1Q6SVWJNTLUHU9L5OG450JK
p298
sS'rating_variations_9'
p299
V2TK6DG67D1X31BL5DKFK5JE1UVS9G8
p300
sS'rating_variations_11'
p301
V2F55F3Q0JG5T4XTX9624CF9S0GLDHT
p302
sS'all_conditions1_80'
p303
V248Q7Q67051QQNTCEAKQF1XMO61XD3
p304
sS'all_conditions1_81'
p305
V236FXRDS4IC1K9J8AR6M41A2QJ0VY7
p306
sS'all_conditions1_82'
p307
V2XCLF395SW6NMCLDGVPNMBYF930SEJ
p308
sS'second_experiment'
p309
V2P4Z9O9Z6KW45XGKUPIROFQ0SFA3CZ
p310
sS'all_conditions1_84'
p311
V2Z3KH1Q6SVQ8NJE732XL8OBVK632LE
p312
sS'test_82'
p313
V29E1VP9746OQ73TB3FH6A051VT50KJ
p314
sS'all_conditions1_86'
p315
V227HIT3HVWAVQTCN0RH2472ZHXSLD6
p316
sS'all_conditions1_87'
p317
V2PQMQU6L5OBVIT7CA5VALJF7OI2XEW
p318
sS'all_conditions1_88'
p319
V2XCLF395SW6NMCLDGVPNMBYF930ES5
p320
sS'all_conditions1_48'
p321
V2LRF9SSSHX11PZTD6D85I8J4WD3ZV1
p322
sS'test_why_leave_collective_gain'
p323
V21UJ011K274JDKQB9ES8Q46U2OWBDU
p324
sS'rating_variations_13'
p325
V27ZM8JIA0RYNPK88WSD08BMJ1IL056
p326
sS'all_conditions1_85'
p327
V2BGT3DHJHP4BJOQ1H6ZRVX9XB44V2P
p328
sS'rating_variations_25'
p329
V25L3FDEY5COW6WMCCBZCUFLCEJRT2A
p330
sS'test_49'
p331
V2FKAOO2GMMEGUZMB5KD6LAA2XNB77K
p332
sS'all_conditions1_19'
p333
V2SM9F9SSSHX17UU851WH8F8JCCQUYG
p334
sS'all_conditions1_18'
p335
V2TX806UFBNFS1R06SB05VW6NOPH2G8
p336
sS'test_conds'
p337
V2FNPQJQ9OPLL3NDFZZOGBKCO4Q2Z1D
p338
sS'all_conditions1_16'
p339
V29DQ8H88MQU6RGUW8K91UXX4I6KS99
p340
sS'all_conditions1_15'
p341
V2KGOCCF0CP5K30Z30Q9X1G4PUVPVU9
p342
sS'all_conditions1_14'
p343
V28RY8TNKIMZSSGQ0U0TOP0PG334XA1
p344
sS'all_conditions1_13'
p345
V2CUNHMVHVKCJ6C75FFVJA9KQ4U3534
p346
sS'all_conditions1_12'
p347
V2WGQS1CSTMOF32JDHQ31HYDN57HNQF
p348
sS'all_conditions1_11'
p349
V27E618N46UXFIOAQAK5TQDSN18JPRD
p350
sS'all_conditions1_10'
p351
V2XE40SPW1INMNR4BHRUNDB6BNAH2F9
p352
sS'rating_variations_38'
p353
V2PAV7WGKCCVLREIVGBDHDPQ4KXRT3L
p354
sS'rating_variations_39'
p355
V21ICOK2JE1M7VVQUYZN6RZAC8SPNUM
p356
sS'guarantee_feedback_shown_1'
p357
V2Y0T3HVWAVKICDT43AS75Z99Y0HNFK
p358
sS'new_schema'
p359
V2JYMMEGOOGQSIXC3NITSHIUUYUICC5
p360
sS'all_conditions1_89'
p361
V2ELV0FK0COK2PP77KXBKCLRWEC1IP3
p362
sS'rating_variations_32'
p363
V2TX806UFBNFS1R06SB05VW6NOPJ2GA
p364
sS'rating_variations_33'
p365
V2EXB0HFL42J1R9BTOFT7P0IGN8LL0F
p366
sS'rating_variations_30'
p367
V2DS6X3YOCCF0I0B5AXKIQIIX647RQ8
p368
sS'rating_variations_31'
p369
V2OV1X3V0FK0CUV84R9D7SKK9TF0FMF
p370
sS'rating_variations_36'
p371
V26E1INMHGYQ4PETVOE2FPFFO6MLK7A
p372
sS'rating_variations_37'
p373
V29DGULF395SWCYMMS0UN1NJB635QC2
p374
sS'rating_variations_34'
p375
V2UHKPFE4EGDHJX8QYG99QZW6P23I8L
p376
sS'rating_variations_35'
p377
V217FE4EGDHDM8GRTVHEZZ6HE7USAKS
p378
sS'rating_variations_3'
p379
V2MAW6NG1FS3N4YPWBNSF2SZLALVKYC
p380
sS'all_conditions1_49'
p381
V2P4QU6L5OBVCOCXIAC1IMF7G2PCFY3
p382
sS'all_conditions1_47'
p383
V2LX0OHOVR14I3VUNYHTHHCWAEL556A
p384
sS'test_28'
p385
V248Y2RCJK63Z1P9248BULAQ9OUXV60
p386
sS'test_29'
p387
V2SIHFL42J1LYBJHSFFD0LGFKMMU2NA
p388
sS'test_26'
p389
V2C73TVOK5UFJBC4S3MFZIYQS6LL740
p390
sS'test_27'
p391
V2DDOX7H57DZKVQKPRO4HGM25QHB0A4
p392
sS'test_24'
p393
V2NFBAT2D5NQYTGLO38AG8TYMSLP73F
p394
sS'test_neg2..2'
p395
V2YXL42J1LY58HI8SZ89GIKHD6FUP4S
p396
sS'test_22'
p397
V2Z3KH1Q6SVQ8NJE732XL8OBVHRU2L8
p398
sS'aah'
p399
V28J4IXKO2L92NPIHNEO31OCCJUUCD5
p400
sS'test_20'
p401
V2G2PFE4EGDHDSDB6LQ0N2W6HJ8Z9J5
p402
sS'test_21'
p403
V23QJIA0RYNJ98YP5Z8WBPJTUM7P724
p404
sS'test_class_demo_mar27'
p405
V2C79746OQ1SNW1DBJFR54QKCS1CN3Q
p406
sS'all_conditions1_96'
p407
V2MQB727M0IGFQSJMJ66SYF4VQCWYDB
p408
sS'all_conditions1_95'
p409
V27DJ8EBDPGFLC6IA970RQDWIWJ3G15
p410
sS'all_conditions1_94'
p411
V2BFFCD45XCETTOY86S9N6TGPCOBZX4
p412
sS'all_conditions1_93'
p413
V2IDP9746OQ1ST1WS3EY081QKKBT2MG
p414
sS'all_conditions1_42'
p415
V2JGU98JHSTLB9W60OR0IRBJERFFEQG
p416
sS'all_conditions1_91'
p417
V2TEA6X3YOCCF6NVQX5GTLNII5MIQPE
p418
sS'all_conditions1_90'
p419
V2F84J3NAB6BFSQL9B69T4TJFL4FSF1
p420
sS'all_conditions1_43'
p421
V2FN8B727M0IGLVNYEEPFVVF436PXC3
p422
sS'test_92'
p423
V2JV5NQYN5F3Q6UMQ66DNFWYB9I8C85
p424
sS'test_23'
p425
V2U78PJWKUDD83XHO3B0Z3B6UYXZ9K4
p426
sS'rating_variations_29'
p427
V2KLFDEY5COW0RRXKGG3RILC63BXU3C
p428
sS'all_conditions1_83'
p429
V2581SNQQ7Q676G7BXKER42TQKPZT90
p430
sS'test_45'
p431
V2IANQQ7Q670571QX0ZS2WQC12V8VBL
p432
sS'blah'
p433
V2BU26DG67D1X9660X83ON2JE5EU8F7
p434
sS'all_conditions1_6'
p435
V2O8EOZFYQS1CY4S9S5IDV4IC920IL5
p436
sS'all_conditions1_5'
p437
V2Q2QW618N46U3QIYHDOCHTND0BVNPO
p438
sS'experiment_1'
p439
V2I63W5XH0JPPYT85BMGLVP75SV1KEG
p440
sS'test_59'
p441
V243VWJ5OPB0Y1R5TBUNBAEP9ZCU4WZ
p442
sS'test_94'
p443
V2525UFJ51Y7QKZ50BYJ1FSTMTOQC9U
p444
sS'all_conditions1_78'
p445
V2PW4BLYHVI44U385Y2ZDQEZSJYQV18
p446
sS'test_53'
p447
V23DHVKCJ011K8IA4KHBQZ618SDZ79W
p448
sS'all_conditions1_3'
p449
V2A4OFXRDS4IC7P4Y05AFP11AA6WUXA
p450
sS'test_51'
p451
V2H6HOVR14IXKUDRUFP5CZA6X87H787
p452
sS'test_50'
p453
V29UGW40SPW1ITXN1BYVJ6NABBK80D6
p454
sS'test_57'
p455
V2JVIPDOBDDP8VU257L480MB3VC2C1L
p456
sS'test_56'
p457
V2XXL6VCPWZ9RTO2313SSASN3I299OO
p458
sS'test_55'
p459
V25L3FDEY5COW6WMCCBZCUFLCB4G2TB
p460
sS'test_54'
p461
V2S5FSVGULF39B32R0OSFV3NYSS49N9
p462
sS'all_conditions1_17'
p463
V2J1E1M7PKK9LX7C9CI307LZXX99ZSW
p464
sS'all_conditions1_68'
p465
V2QH6KW4ZMAZHN2X6SYROQNVRPPLH8O
p466
sS'all_conditions1_69'
p467
V25XXRDS4IC1E4OTIWND14A2I3M5ZWB
p468
sS'all_conditions1_1'
p469
V2DABRI8IUB2Y0KE4U0KLE3L0NZKH5M
p470
sS'rating_variations_2'
p471
V25LW5XH0JPPSODQJRXCSS75KTAAFLD
p472
sS'all_conditions1_63'
p473
V2GFR24SMEZZ2STQ70HL8S9Y3GHY2JC
p474
sS'all_conditions1_60'
p475
V28YNTBJ3MMDXBQVS0ETKKB9MLLPBXA
p476
sS'all_conditions1_61'
p477
V2J11LY58B727SBO1SS8D46YF0JHT8B
p478
sS'rating_variations_6'
p479
V2V5LVWJ5OPB046MKL6DWE7EPHI63VA
p480
sS'all_conditions1_67'
p481
V2U7GFL6VCPWZF2TY9QFV4S7SVRF7M1
p482
sS'rating_variations_4'
p483
V2N2W4ZMAZHHRXWLBDWENYRH1S5SAJT
p484
sS'all_conditions1_65'
p485
V27A1CSTMOFXRJ3A3P95YGNXJNA2PS1
p486
sS'test_cycle_2'
p487
V27D66RLPHIT3N62V8S965NJQ7B78GK
p488
sS'test_cycle_3'
p489
V2J5JKM05BMJT0S4HFOKPCRA7XFWIDS
p490
sS'test_cycle_1'
p491
V28UJK63ZVE3HXBQFVIH9ML5R8P1AZF
p492
sS'test_cycle_6'
p493
V2KVHJHP4BDDKMF4T40O903G3AHW5YD
p494
sS'test_cycle_7'
p495
V22GHVI44OS2KR5EY0MQSEAP5GB05Z4
p496
sS'test_cycle_4'
p497
V2DKDIPDOBDDPE0PHX24DBXMB803B0J
p498
sS'test_cycle_5'
p499
V24NF3Q0JG5TYSYIHBJV9I9SSXRXIEL
p500
sS'blah2'
p501
V2UHKPFE4EGDHJX8QYG99QZW6L6M8IY
p502
sS'test_neg2..2(2)'
p503
V2DJVP9746OQ1YYWBKYX7351QPLK1LU
p504
sS'test_cycle_8'
p505
V2F84J3NAB6BFSQL9B69T4TJFIQEFSS
p506
sS'test_cycle_9'
p507
V2UHKPFE4EGDHJX8QYG99QZW6MOZ8IC
p508
sS'all_conditions1_62'
p509
V2OVZKPFE4EGDNOSNITZICNZWE5FH71
p510
sS'test_normal'
p511
V2KXDEY5COW0LM25OLKIFOC6VS3W4VT
p512
sS'test_58'
p513
V2UCCF806UFBNL3117T63C5SWBW90EZ
p514
sS'rating_variations_40'
p515
V2XCLF395SW6NMCLDGVPNMBYF932ES7
p516
sS'all_conditions1_76'
p517
V24C8LZ6R70G5XKEYLRUVH7WS0HP7N1
p518
sS'thank_on_bad_review_mandatory_review_experimental_validity_reason_25subjects'
p519
V27DJ8EBDPGFLC6IA970RQDWIWISG1S
p520
sS'test_25'
p521
V2IDP9746OQ1ST1WS3EY081QKHWK2MA
p522
sS'test_48'
p523
V2PZ88MQU6L5OH6I3EZOX7AIJKG8VCS
p524
sS'rating_variations_24'
p525
V22OVCPWZ9RND2TUGE0YSQ3DTOI5QBV
p526
sS'rating_variations_27'
p527
V2XGQ4J3NAB6BLXL016PIW1TJN1JERJ
p528
sS'rating_variations_26'
p529
V267SI2KYEPLSVIB5YUXWM3OAPEINTV
p530
sS'rating_variations_21'
p531
V2J5JKM05BMJT0S4HFOKPCRA70T0DIM
p532
sS'rating_variations_20'
p533
V2JGU98JHSTLB9W60OR0IRBJERFHEQI
p534
sS'rating_variations_23'
p535
V2XE40SPW1INMNR4BHRUNDB6BNAJ2FB
p536
sS'rating_variations_22'
p537
V2GYKPEIB9BAWR3SI2YWV0UD3UHUX0C
p538
sS'test_40'
p539
V2VU1PC6SK9RJEGUKV75HPAAPRXH2QX
p540
sS'test_41'
p541
V2ZQIUB2YU98JN3Z6OBC0IBJ9NX49L7
p542
sS'test_42'
p543
V2KXDEY5COW0LM25OLKIFOC6VS3S4VP
p544
sS'test_43'
p545
V2I3Y58B727M0ORL5ULS61FSVKDNVAQ
p546
sS'test_44'
p547
V2I0NMHGYQ4J3TLHRONDFIOYYN2U9M9
p548
sS'rating_variations_28'
p549
V2JJO3W5XH0JPV3ONX65POSP7D8PDJY
p550
sS'test_46'
p551
V29UXKNQY2RCJQH9K8MUHU0KUNJJ2RY
p552
sS'test_47'
p553
V2WIOHOVR14IXQZ86MA8EFWA62CR76L
p554
sS'all_conditions1_79'
p555
V28RZJMJUNU8L5HXSDOWRC8D8RRXG02
p556
sS'mandatory_review_personal_gain_25subjects'
p557
V28AQV66RLPHIZENG9IMKL62NRDU6E0
p558
sS'base_case_2'
p559
V2PT727M0IGFKNO7RBNJVI4VIWAAEZ4
p560
sS'test_52'
p561
V29QSV7WGKCCVRW9XNBUMKAPQ9L22SM
p562
sS'all_conditions1_71'
p563
V2C2I62NJQ2178AFU3PXBNLCVMZWNV9
p564
sS'all_conditions1_70'
p565
V2DMZMAZHHRRLL1690VMRK1KHWXGLC6
p566
sS'all_conditions1_73'
p567
V2MFH0JPPSI2K4PV65XY5NLM6475IOM
p568
sS'all_conditions1_72'
p569
V235CWYB49F9SY3NIE9AOQST5PTGPTQ
p570
sS'all_conditions1_75'
p571
V2CUPWZ9RNDWIU67DK0E3GTGU9RZSDQ
p572
sS'all_conditions1_74'
p573
V2LOUXFCD45XCK4TY5VKKLN3TOD6VX1
p574
sS'all_conditions1_77'
p575
V2CO6RLPHIT3H17GGXQX2QJQ29V3H9D
p576
sS'test_review_mandatory_no'
p577
V2FNPQJQ9OPLL3NDFZZOGBKCO4UF1Z0
p578
s.