(dp0
S'test'
p1
V2PW4BLYHVI44U385Y2ZDQEZSFY01VK
p2
sS'experiment_1'
p3
V2I63W5XH0JPPYT85BMGLVP75SV1KEG
p4
sS'experiment_name'
p5
V2CIFK0COK2JE7XDAXS0LUW6O3XZKRN
p6
sS'test2'
p7
V2DJINMHGYQ4J9YGWJJ6MIFOY25GL8F
p8
sS't3'
p9
V2YDWAVKI62NJWD7SF709TH6BO8ZJRN
p10
s.