(dp0
S'test2'
p1
V2DJINMHGYQ4J9YGWJJ6MIFOY25GL8F
p2
sS'aah'
p3
V28J4IXKO2L92NPIHNEO31OCCJUUCD5
p4
sS'blah'
p5
V2BU26DG67D1X9660X83ON2JE5EU8F7
p6
sS'test_no_args'
p7
V2NFBAT2D5NQYTGLO38AG8TYMSLF735
p8
sS'test_case_hi'
p9
V2525UFJ51Y7QKZ50BYJ1FSTMTI5C9X
p10
sS'experiment_1'
p11
V2I63W5XH0JPPYT85BMGLVP75SV1KEG
p12
sS'amk_testafgra'
p13
V2FK4E6AUBXHWYSD0YH0VEZWDVFEX11
p14
sS'thank_on_bad_review_1'
p15
V2A79RA7S5WM1CK4D1NY0MMHLI14UZ7
p16
sS'blah2'
p17
V2UHKPFE4EGDHJX8QYG99QZW6L6M8IY
p18
sS'3'
p19
V283PHIT3HVWA1VORFVAQ517231WCKJ
p20
sS'second_experiment'
p21
V2P4Z9O9Z6KW45XGKUPIROFQ0SFA3CZ
p22
sS'test'
p23
V2PW4BLYHVI44U385Y2ZDQEZSFY01VK
p24
sS'test_conds'
p25
V2FNPQJQ9OPLL3NDFZZOGBKCO4Q2Z1D
p26
sS'guarantee_feedback_shown_1'
p27
V2Y0T3HVWAVKICDT43AS75Z99Y0HNFK
p28
sS'new_schema'
p29
V2JYMMEGOOGQSIXC3NITSHIUUYUICC5
p30
sS'name'
p31
V2KZVWAVKI62NP18MKAQ9CQH6GT4IQE
p32
sS'guarantee_anonymous_1'
p33
V2G4AZHHRRLFQ6ZT88Z81NHO9MZ2NE2
p34
sS't3'
p35
V2YDWAVKI62NJWD7SF709TH6BO8ZJRN
p36
sS'test_no_args3'
p37
V2RJQP6AUC26DMHDYE5UV3FK0HX3928
p38
sS'test_no_args2'
p39
V2C73TVOK5UFJBC4S3MFZIYQS6LB74Q
p40
sS'experiment_name'
p41
V2CIFK0COK2JE7XDAXS0LUW6O3XZKRN
p42
sS'test_conds3'
p43
V2JV21O3W5XH0P0VDVABYHPLSUCDBHJ
p44
sS'another_test'
p45
V22H6R70G5R98JJPO8MYWVSTN243AQ7
p46
sS'base_case_2'
p47
V2PT727M0IGFKNO7RBNJVI4VIWAAEZ4
p48
sS'test_conds2'
p49
V21UJ011K274JDKQB9ES8Q46U2KKBDA
p50
s.