(dp0
S'experiment_1'
p1
V2I63W5XH0JPPYT85BMGLVP75SV1KEG
p2
sS'test2'
p3
V2DJINMHGYQ4J9YGWJJ6MIFOY25GL8F
p4
sS'3'
p5
V283PHIT3HVWA1VORFVAQ517231WCKJ
p6
sS'blah2'
p7
V2UHKPFE4EGDHJX8QYG99QZW6L6M8IY
p8
sS't3'
p9
V2YDWAVKI62NJWD7SF709TH6BO8ZJRN
p10
sS'blah'
p11
V2BU26DG67D1X9660X83ON2JE5EU8F7
p12
sS'experiment_name'
p13
V2CIFK0COK2JE7XDAXS0LUW6O3XZKRN
p14
sS'second_experiment'
p15
V2P4Z9O9Z6KW45XGKUPIROFQ0SFA3CZ
p16
sS'test'
p17
V2PW4BLYHVI44U385Y2ZDQEZSFY01VK
p18
sS'another_test'
p19
V22H6R70G5R98JJPO8MYWVSTN243AQ7
p20
s.