(dp0
S'experiment_1'
p1
V2I63W5XH0JPPYT85BMGLVP75SV1KEG
p2
sS'test2'
p3
V2DJINMHGYQ4J9YGWJJ6MIFOY25GL8F
p4
sS'blah2'
p5
V2UHKPFE4EGDHJX8QYG99QZW6L6M8IY
p6
sS't3'
p7
V2YDWAVKI62NJWD7SF709TH6BO8ZJRN
p8
sS'blah'
p9
V2BU26DG67D1X9660X83ON2JE5EU8F7
p10
sS'3'
p11
V283PHIT3HVWA1VORFVAQ517231WCKJ
p12
sS'second_experiment'
p13
V2P4Z9O9Z6KW45XGKUPIROFQ0SFA3CZ
p14
sS'experiment_name'
p15
V2CIFK0COK2JE7XDAXS0LUW6O3XZKRN
p16
sS'test'
p17
V2PW4BLYHVI44U385Y2ZDQEZSFY01VK
p18
sS'amk_testafgra'
p19
V2FK4E6AUBXHWYSD0YH0VEZWDVFEX11
p20
sS'another_test'
p21
V22H6R70G5R98JJPO8MYWVSTN243AQ7
p22
s.